---
triple:          'arm64-apple-darwin'
binary-path:     '/Users/rb/Code/edge/arch-ios/build.ios/Release-iphoneos/edge.framework/edge'
relocations:
  - { offset: 0x3F, size: 0x8, addend: 0x0, symName: __ZL6ssLock, symObjAddr: 0x184F8, symBinAddr: 0x71C378, symSize: 0x0 }
  - { offset: 0x20619, size: 0x8, addend: 0x0, symName: __ZNSt3__119piecewise_constructE, symObjAddr: 0x17678, symBinAddr: 0x5E9800, symSize: 0x0 }
  - { offset: 0x22A33, size: 0x8, addend: 0x0, symName: __ZNSt3__124__put_character_sequenceB8ne180100IcNS_11char_traitsIcEEEERNS_13basic_ostreamIT_T0_EES7_PKS4_m, symObjAddr: 0x2D80, symBinAddr: 0x6BE0, symSize: 0x164 }
  - { offset: 0x251C5, size: 0x8, addend: 0x0, symName: __ZNSt3__120__throw_future_errorB8ne180100ENS_11future_errcE, symObjAddr: 0x255C, symBinAddr: 0x655C, symSize: 0x5C }
  - { offset: 0x25E62, size: 0x8, addend: 0x0, symName: __ZNSt3__125__throw_bad_function_callB8ne180100Ev, symObjAddr: 0x3204, symBinAddr: 0x7064, symSize: 0x34 }
  - { offset: 0x25EB9, size: 0x8, addend: 0x0, symName: __ZNSt3__14endlB8ne180100IcNS_11char_traitsIcEEEERNS_13basic_ostreamIT_T0_EES7_, symObjAddr: 0x10C8, symBinAddr: 0x50C8, symSize: 0x90 }
  - { offset: 0x25FD0, size: 0x8, addend: 0x0, symName: __ZNSt3__127__tree_balance_after_insertB8ne180100IPNS_16__tree_node_baseIPvEEEEvT_S5_, symObjAddr: 0x1E4C, symBinAddr: 0x5E4C, symSize: 0x1A0 }
  - { offset: 0x26538, size: 0x8, addend: 0x0, symName: __ZNSt3__120__throw_length_errorB8ne180100EPKc, symObjAddr: 0x2258, symBinAddr: 0x6258, symSize: 0x50 }
  - { offset: 0x26B37, size: 0x8, addend: 0x0, symName: __ZNSt3__116__pad_and_outputB8ne180100IcNS_11char_traitsIcEEEENS_19ostreambuf_iteratorIT_T0_EES6_PKS4_S8_S8_RNS_8ios_baseES4_, symObjAddr: 0x2EE4, symBinAddr: 0x6D44, symSize: 0x1A4 }
  - { offset: 0x2DC01, size: 0x8, addend: 0x0, symName: __ZSt28__throw_bad_array_new_lengthB8ne180100v, symObjAddr: 0x1E24, symBinAddr: 0x5E24, symSize: 0x28 }
  - { offset: 0x2DC6F, size: 0x8, addend: 0x0, symName: __ZSt18make_exception_ptrB8ne180100INSt3__112future_errorEESt13exception_ptrT_, symObjAddr: 0x2444, symBinAddr: 0x6444, symSize: 0x74 }
  - { offset: 0x2DF7D, size: 0x8, addend: 0x0, symName: __ZL10smartStart, symObjAddr: 0x21C270, symBinAddr: 0x788490, symSize: 0x0 }
  - { offset: 0x34F2A, size: 0x8, addend: 0x0, symName: __ZL11is_log_init, symObjAddr: 0x21C280, symBinAddr: 0x7884A0, symSize: 0x0 }
  - { offset: 0x35720, size: 0x8, addend: 0x0, symName: __ZN3fmt3v106detail12is_printableEj, symObjAddr: 0x7094, symBinAddr: 0xAEA8, symSize: 0x224 }
  - { offset: 0x3574C, size: 0x8, addend: 0x0, symName: __ZZN3fmt3v106detail12is_printableEjE11singletons0, symObjAddr: 0x1793F, symBinAddr: 0x5E9A37, symSize: 0x0 }
  - { offset: 0x35763, size: 0x8, addend: 0x0, symName: __ZZN3fmt3v106detail12is_printableEjE17singletons0_lower, symObjAddr: 0x17991, symBinAddr: 0x5E9A89, symSize: 0x0 }
  - { offset: 0x3577A, size: 0x8, addend: 0x0, symName: __ZZN3fmt3v106detail12is_printableEjE11singletons1, symObjAddr: 0x17AB3, symBinAddr: 0x5E9BAB, symSize: 0x0 }
  - { offset: 0x35791, size: 0x8, addend: 0x0, symName: __ZZN3fmt3v106detail12is_printableEjE17singletons1_lower, symObjAddr: 0x17AFF, symBinAddr: 0x5E9BF7, symSize: 0x0 }
  - { offset: 0x357A8, size: 0x8, addend: 0x0, symName: __ZZN3fmt3v106detail12is_printableEjE7normal0, symObjAddr: 0x17BAE, symBinAddr: 0x5E9CA6, symSize: 0x0 }
  - { offset: 0x357BF, size: 0x8, addend: 0x0, symName: __ZZN3fmt3v106detail12is_printableEjE7normal1, symObjAddr: 0x17CE3, symBinAddr: 0x5E9DDB, symSize: 0x0 }
  - { offset: 0x35D4A, size: 0x8, addend: 0x0, symName: __ZN3fmt3v106detail9dragonbox10to_decimalIfEENS2_10decimal_fpIT_EES5_, symObjAddr: 0x8D58, symBinAddr: 0xCA54, symSize: 0x3A4 }
  - { offset: 0x36316, size: 0x8, addend: 0x0, symName: __ZN3fmt3v106detail9dragonbox10to_decimalIdEENS2_10decimal_fpIT_EES5_, symObjAddr: 0xAC10, symBinAddr: 0xE90C, symSize: 0x518 }
  - { offset: 0x372FD, size: 0x8, addend: 0x0, symName: __ZN3fmt3v106detail9write_locENS0_8appenderENS0_9loc_valueERKNS0_12format_specsIcEENS1_10locale_refE, symObjAddr: 0x4AF4, symBinAddr: 0x8954, symSize: 0x1A0 }
  - { offset: 0x37888, size: 0x8, addend: 0x0, symName: __ZN3fmt3v106detail5writeIcNS0_8appenderEfLi0EEET0_S4_T1_, symObjAddr: 0x8C88, symBinAddr: 0xC984, symSize: 0xD0 }
  - { offset: 0x37AFB, size: 0x8, addend: 0x0, symName: __ZN3fmt3v106detail5writeIcNS0_8appenderEdLi0EEET0_S4_T1_, symObjAddr: 0xAB44, symBinAddr: 0xE840, symSize: 0xCC }
  - { offset: 0x37F1F, size: 0x8, addend: 0x0, symName: __ZN3fmt3v106detail23parse_replacement_fieldIcRZNS1_10vformat_toIcEEvRNS1_6bufferIT_EENS0_17basic_string_viewIS5_EENS1_12vformat_argsIS5_E4typeENS1_10locale_refEE14format_handlerEEPKS5_SH_SH_OT0_, symObjAddr: 0xCB88, symBinAddr: 0x10634, symSize: 0x498 }
  - { offset: 0x38DAA, size: 0x8, addend: 0x0, symName: __ZZN3fmt3v106detail19parse_format_stringILb0EcZNS1_10vformat_toIcEEvRNS1_6bufferIT_EENS0_17basic_string_viewIS5_EENS1_12vformat_argsIS5_E4typeENS1_10locale_refEE14format_handlerEEvNS8_IT0_EEOT1_EN6writerclEPKcSL_, symObjAddr: 0xD020, symBinAddr: 0x10ACC, symSize: 0xDC }
  - { offset: 0x38DC7, size: 0x8, addend: 0x0, symName: __ZN3fmt3v106detail10vformat_toIcEEvRNS1_6bufferIT_EENS0_17basic_string_viewIS4_EENS1_12vformat_argsIS4_E4typeENS1_10locale_refE, symObjAddr: 0x3250, symBinAddr: 0x70B0, symSize: 0x368 }
  - { offset: 0x39A2D, size: 0x8, addend: 0x0, symName: __ZN3fmt3v1019basic_memory_bufferIcLm500ENSt3__19allocatorIcEEE4growEm, symObjAddr: 0x35B8, symBinAddr: 0x7418, symSize: 0x138 }
  - { offset: 0x39DFF, size: 0x8, addend: 0x0, symName: __ZN3fmt3v106detail5writeIcNS0_8appenderEEET0_S4_T_RKNS0_12format_specsIS5_EENS1_10locale_refE, symObjAddr: 0x10B14, symBinAddr: 0x145C0, symSize: 0x13C }
  - { offset: 0x3A077, size: 0x8, addend: 0x0, symName: __ZN3fmt3v106detail11write_floatIcNS0_8appenderEfEET0_S4_T1_NS0_12format_specsIT_EENS1_10locale_refE, symObjAddr: 0x10C50, symBinAddr: 0x146FC, symSize: 0x344 }
  - { offset: 0x3A0D2, size: 0x8, addend: 0x0, symName: __ZN3fmt3v106detail15format_hexfloatIdLi0EEEvT_iNS1_11float_specsERNS1_6bufferIcEE, symObjAddr: 0x1104C, symBinAddr: 0x14AF8, symSize: 0x578 }
  - { offset: 0x3B84B, size: 0x8, addend: 0x0, symName: __ZN3fmt3v106detail9write_ptrIcNS0_8appenderEmEET0_S4_T1_PKNS0_12format_specsIT_EE, symObjAddr: 0xC91C, symBinAddr: 0x103C8, symSize: 0xE4 }
  - { offset: 0x3B878, size: 0x8, addend: 0x0, symName: __ZN3fmt3v106detail11assert_failEPKciS3_, symObjAddr: 0x3A4C, symBinAddr: 0x78AC, symSize: 0x34 }
  - { offset: 0x3B8D4, size: 0x8, addend: 0x0, symName: __ZN3fmt3v106detail17copy_str_noinlineIcPcNS0_8appenderEEET1_T0_S6_S5_, symObjAddr: 0x3A80, symBinAddr: 0x78E0, symSize: 0x184 }
  - { offset: 0x3B8DF, size: 0x8, addend: 0x0, symName: __ZN3fmt3v106detail5writeIcNS0_8appenderEiLi0EEET0_S4_T1_, symObjAddr: 0x384C, symBinAddr: 0x76AC, symSize: 0x200 }
  - { offset: 0x3BC33, size: 0x8, addend: 0x0, symName: __ZN3fmt3v106detail5writeIcNS0_8appenderEjLi0EEET0_S4_T1_, symObjAddr: 0x3C04, symBinAddr: 0x7A64, symSize: 0x194 }
  - { offset: 0x3BF12, size: 0x8, addend: 0x0, symName: __ZN3fmt3v106detail5writeIcNS0_8appenderExLi0EEET0_S4_T1_, symObjAddr: 0x3D98, symBinAddr: 0x7BF8, symSize: 0x224 }
  - { offset: 0x3C24F, size: 0x8, addend: 0x0, symName: __ZN3fmt3v106detail5writeIcNS0_8appenderEyLi0EEET0_S4_T1_, symObjAddr: 0x3FBC, symBinAddr: 0x7E1C, symSize: 0x1BC }
  - { offset: 0x3C517, size: 0x8, addend: 0x0, symName: __ZN3fmt3v106detail5writeIcNS0_8appenderEnLi0EEET0_S4_T1_, symObjAddr: 0x4178, symBinAddr: 0x7FD8, symSize: 0x468 }
  - { offset: 0x3C8D8, size: 0x8, addend: 0x0, symName: __ZN3fmt3v106detail5writeIcNS0_8appenderEoLi0EEET0_S4_T1_, symObjAddr: 0x45E0, symBinAddr: 0x8440, symSize: 0x400 }
  - { offset: 0x3C90D, size: 0x8, addend: 0x0, symName: __ZN3fmt3v106detail5writeIcNS0_8appenderEoLi0EEET0_S4_T1_, symObjAddr: 0x45E0, symBinAddr: 0x8440, symSize: 0x400 }
  - { offset: 0x3CC5F, size: 0x8, addend: 0x0, symName: __ZN3fmt3v106detail5writeIcNS0_8appenderEbLi0EEET0_S4_T1_RKNS0_12format_specsIT_EENS1_10locale_refE, symObjAddr: 0x49E0, symBinAddr: 0x8840, symSize: 0x114 }
  - { offset: 0x3CC94, size: 0x8, addend: 0x0, symName: __ZN3fmt3v106detail18throw_format_errorEPKc, symObjAddr: 0x36F0, symBinAddr: 0x7550, symSize: 0x50 }
  - { offset: 0x3CCD5, size: 0x8, addend: 0x0, symName: __ZN3fmt3v106detail5writeIcNS0_8appenderEbLi0EEET0_S4_T1_RKNS0_12format_specsIT_EENS1_10locale_refE, symObjAddr: 0x49E0, symBinAddr: 0x8840, symSize: 0x114 }
  - { offset: 0x3D024, size: 0x8, addend: 0x0, symName: __ZN3fmt3v106detail9write_ptrIcNS0_8appenderEmEET0_S4_T1_PKNS0_12format_specsIT_EE, symObjAddr: 0xC91C, symBinAddr: 0x103C8, symSize: 0xE4 }
  - { offset: 0x3D21A, size: 0x8, addend: 0x0, symName: __ZZN3fmt3v106detail9write_ptrIcNS0_8appenderEmEET0_S4_T1_PKNS0_12format_specsIT_EEENKUlS3_E_clES3_, symObjAddr: 0xCA00, symBinAddr: 0x104AC, symSize: 0x188 }
  - { offset: 0x3D462, size: 0x8, addend: 0x0, symName: __ZN3fmt3v106detail17copy_str_noinlineIcPcNS0_8appenderEEET1_T0_S6_S5_, symObjAddr: 0x3A80, symBinAddr: 0x78E0, symSize: 0x184 }
  - { offset: 0x3D5E0, size: 0x8, addend: 0x0, symName: __ZN3fmt3v106detail5writeIcNS0_8appenderEjLi0EEET0_S4_T1_, symObjAddr: 0x3C04, symBinAddr: 0x7A64, symSize: 0x194 }
  - { offset: 0x3DB28, size: 0x8, addend: 0x0, symName: __ZN3fmt3v106detail12write_paddedILNS0_5align4typeE1ENS0_8appenderEcRZNS1_11write_bytesILS4_1EcS5_EET1_S7_NS0_17basic_string_viewIcEERKNS0_12format_specsIT0_EEEUlS5_E_EESB_SB_RKNSA_IS7_EEmmOT2_, symObjAddr: 0x8A80, symBinAddr: 0xC77C, symSize: 0x208 }
  - { offset: 0x3DDD6, size: 0x8, addend: 0x0, symName: __ZN3fmt3v106detail5writeIcNS0_8appenderEfLi0EEET0_S4_T1_, symObjAddr: 0x8C88, symBinAddr: 0xC984, symSize: 0xD0 }
  - { offset: 0x3DE0F, size: 0x8, addend: 0x0, symName: __ZN3fmt3v106detail18write_int_noinlineIcNS0_8appenderEjEET0_S4_NS1_13write_int_argIT1_EERKNS0_12format_specsIT_EENS1_10locale_refE, symObjAddr: 0x4C94, symBinAddr: 0x8AF4, symSize: 0x8C0 }
  - { offset: 0x3EFBE, size: 0x8, addend: 0x0, symName: __ZN3fmt3v1012format_facetINSt3__16localeEED1Ev, symObjAddr: 0x5554, symBinAddr: 0x93B4, symSize: 0x74 }
  - { offset: 0x3FF8F, size: 0x8, addend: 0x0, symName: __ZN3fmt3v106detail12write_paddedILNS0_5align4typeE1ENS0_8appenderEcRZNS1_10write_charIcS5_EET0_S7_T_RKNS0_12format_specsIS8_EEEUlS5_E_EES7_S7_RKNS9_IT1_EEmmOT2_, symObjAddr: 0x6A10, symBinAddr: 0xA824, symSize: 0x110 }
  - { offset: 0x40166, size: 0x8, addend: 0x0, symName: __ZN3fmt3v106detail4fillINS0_8appenderEcEET_S4_mRKNS1_6fill_tIT0_EE, symObjAddr: 0x6B20, symBinAddr: 0xA934, symSize: 0x208 }
  - { offset: 0x4019F, size: 0x8, addend: 0x0, symName: __ZN3fmt3v106detail4fillINS0_8appenderEcEET_S4_mRKNS1_6fill_tIT0_EE, symObjAddr: 0x6B20, symBinAddr: 0xA934, symSize: 0x208 }
  - { offset: 0x4042C, size: 0x8, addend: 0x0, symName: __ZN3fmt3v106detail18write_escaped_charIcNS0_8appenderEEET0_S4_T_, symObjAddr: 0x6D28, symBinAddr: 0xAB3C, symSize: 0x13C }
  - { offset: 0x406D6, size: 0x8, addend: 0x0, symName: __ZN3fmt3v106detail9write_intINS0_8appenderEycEET_S4_T0_jRKNS0_12format_specsIT1_EERKNS1_14digit_groupingIS7_EE, symObjAddr: 0x6430, symBinAddr: 0xA290, symSize: 0x47C }
  - { offset: 0x41390, size: 0x8, addend: 0x0, symName: __ZN3fmt3v106detail9write_intINS0_8appenderEocEET_S4_T0_jRKNS0_12format_specsIT1_EERKNS1_14digit_groupingIS7_EE, symObjAddr: 0x7BF4, symBinAddr: 0xBA08, symSize: 0x64C }
  - { offset: 0x4235D, size: 0x8, addend: 0x0, symName: __ZN3fmt3v106detail12write_paddedILNS0_5align4typeE2ENS0_8appenderEcZNS1_9write_intIS5_ycEET_S7_T0_jRKNS0_12format_specsIT1_EERKNS1_14digit_groupingISA_EEEUlS5_E_EES8_S8_SD_mmOT2_, symObjAddr: 0x68F8, symBinAddr: 0xA70C, symSize: 0x118 }
  - { offset: 0x42540, size: 0x8, addend: 0x0, symName: __ZN3fmt3v106detail12write_paddedILNS0_5align4typeE1ENS0_8appenderEcRZNS1_10write_charIcS5_EET0_S7_T_RKNS0_12format_specsIS8_EEEUlS5_E_EES7_S7_RKNS9_IT1_EEmmOT2_, symObjAddr: 0x6A10, symBinAddr: 0xA824, symSize: 0x110 }
  - { offset: 0x42579, size: 0x8, addend: 0x0, symName: __ZN3fmt3v106detail18write_escaped_charIcNS0_8appenderEEET0_S4_T_, symObjAddr: 0x6D28, symBinAddr: 0xAB3C, symSize: 0x13C }
  - { offset: 0x42854, size: 0x8, addend: 0x0, symName: __ZN3fmt3v106detail16write_escaped_cpINS0_8appenderEcEET_S4_RKNS1_18find_escape_resultIT0_EE, symObjAddr: 0x6E64, symBinAddr: 0xAC78, symSize: 0x230 }
  - { offset: 0x42BCD, size: 0x8, addend: 0x0, symName: __ZN3fmt3v106detail12is_printableEj, symObjAddr: 0x7094, symBinAddr: 0xAEA8, symSize: 0x224 }
  - { offset: 0x42BF3, size: 0x8, addend: 0x0, symName: __ZN3fmt3v106detail15write_codepointILm2EcNS0_8appenderEEET1_S4_cj, symObjAddr: 0x72B8, symBinAddr: 0xB0CC, symSize: 0x17C }
  - { offset: 0x42EBD, size: 0x8, addend: 0x0, symName: __ZN3fmt3v106detail15write_codepointILm4EcNS0_8appenderEEET1_S4_cj, symObjAddr: 0x7434, symBinAddr: 0xB248, symSize: 0x17C }
  - { offset: 0x42EED, size: 0x8, addend: 0x0, symName: __ZN3fmt3v106detail15write_codepointILm4EcNS0_8appenderEEET1_S4_cj, symObjAddr: 0x7434, symBinAddr: 0xB248, symSize: 0x17C }
  - { offset: 0x431B7, size: 0x8, addend: 0x0, symName: __ZN3fmt3v106detail15write_codepointILm8EcNS0_8appenderEEET1_S4_cj, symObjAddr: 0x75B0, symBinAddr: 0xB3C4, symSize: 0x1A8 }
  - { offset: 0x431E7, size: 0x8, addend: 0x0, symName: __ZN3fmt3v106detail15write_codepointILm8EcNS0_8appenderEEET1_S4_cj, symObjAddr: 0x75B0, symBinAddr: 0xB3C4, symSize: 0x1A8 }
  - { offset: 0x43E0E, size: 0x8, addend: 0x0, symName: __ZZN3fmt3v106detail9write_intINS0_8appenderEcZNS1_9write_intIcS3_jEET0_S5_NS1_13write_int_argIT1_EERKNS0_12format_specsIT_EENS1_10locale_refEEUlS3_E_EESA_SA_ijRKNS9_IS5_EES7_ENKUlS3_E_clES3_, symObjAddr: 0x8358, symBinAddr: 0xC054, symSize: 0x1D4 }
  - { offset: 0x440D5, size: 0x8, addend: 0x0, symName: __ZN3fmt3v106detail12write_paddedILNS0_5align4typeE1ENS0_8appenderEcRZNS1_15write_nonfiniteIcS5_EET0_S7_bNS0_12format_specsIT_EERKNS1_11float_specsEEUlS5_E_EES7_S7_RKNS8_IT1_EEmmOT2_, symObjAddr: 0x90FC, symBinAddr: 0xCDF8, symSize: 0x264 }
  - { offset: 0x443D7, size: 0x8, addend: 0x0, symName: __ZN3fmt3v106detail14do_write_floatINS0_8appenderENS1_9dragonbox10decimal_fpIfEEcNS1_14digit_groupingIcEEEET_S9_RKT0_RKNS0_12format_specsIT1_EENS1_11float_specsENS1_10locale_refE, symObjAddr: 0x9360, symBinAddr: 0xD05C, symSize: 0x670 }
  - { offset: 0x44410, size: 0x8, addend: 0x0, symName: __ZN3fmt3v106detail14do_write_floatINS0_8appenderENS1_9dragonbox10decimal_fpIfEEcNS1_14digit_groupingIcEEEET_S9_RKT0_RKNS0_12format_specsIT1_EENS1_11float_specsENS1_10locale_refE, symObjAddr: 0x9360, symBinAddr: 0xD05C, symSize: 0x670 }
  - { offset: 0x45605, size: 0x8, addend: 0x0, symName: __ZN3fmt3v106detail12write_paddedILNS0_5align4typeE2ENS0_8appenderEcRZNS1_14do_write_floatIS5_NS1_9dragonbox10decimal_fpIfEEcNS1_14digit_groupingIcEEEET_SC_RKT0_RKNS0_12format_specsIT1_EENS1_11float_specsENS1_10locale_refEEUlS5_E1_EESD_SD_SK_mmOT2_, symObjAddr: 0xA5D4, symBinAddr: 0xE2D0, symSize: 0x188 }
  - { offset: 0x4587B, size: 0x8, addend: 0x0, symName: __ZN3fmt3v106detail17write_significandINS0_8appenderEcjNS1_14digit_groupingIcEEEET_S6_T1_iiT0_RKT2_, symObjAddr: 0xA75C, symBinAddr: 0xE458, symSize: 0x178 }
  - { offset: 0x459A8, size: 0x8, addend: 0x0, symName: __ZN3fmt3v106detail17write_significandIcjLi0EEEPT_S4_T0_iiS3_, symObjAddr: 0x9D20, symBinAddr: 0xDA1C, symSize: 0x1FC }
  - { offset: 0x45C57, size: 0x8, addend: 0x0, symName: __ZN3fmt3v106detail14digit_groupingIcEC2ENS1_10locale_refEb, symObjAddr: 0x9F1C, symBinAddr: 0xDC18, symSize: 0xE8 }
  - { offset: 0x45C83, size: 0x8, addend: 0x0, symName: __ZN3fmt3v106detail14write_exponentIcNS0_8appenderEEET0_iS4_, symObjAddr: 0x9B30, symBinAddr: 0xD82C, symSize: 0x1F0 }
  - { offset: 0x45FF9, size: 0x8, addend: 0x0, symName: __ZN3fmt3v106detail17write_significandIcjLi0EEEPT_S4_T0_iiS3_, symObjAddr: 0x9D20, symBinAddr: 0xDA1C, symSize: 0x1FC }
  - { offset: 0x46058, size: 0x8, addend: 0x0, symName: __ZN3fmt3v106detail13thousands_sepIcEENS1_20thousands_sep_resultIT_EENS1_10locale_refE, symObjAddr: 0xA004, symBinAddr: 0xDD00, symSize: 0x140 }
  - { offset: 0x46533, size: 0x8, addend: 0x0, symName: __ZN3fmt3v106detail17write_significandIcNS0_8appenderEjNS1_14digit_groupingIcEEEET0_S6_T1_iiRKT2_, symObjAddr: 0xA280, symBinAddr: 0xDF7C, symSize: 0x354 }
  - { offset: 0x46DB5, size: 0x8, addend: 0x0, symName: __ZN3fmt3v106detail17write_significandINS0_8appenderEcjNS1_14digit_groupingIcEEEET_S6_T1_iiT0_RKT2_, symObjAddr: 0xA75C, symBinAddr: 0xE458, symSize: 0x178 }
  - { offset: 0x4746A, size: 0x8, addend: 0x0, symName: __ZN3fmt3v106detail14do_write_floatINS0_8appenderENS1_9dragonbox10decimal_fpIdEEcNS1_14digit_groupingIcEEEET_S9_RKT0_RKNS0_12format_specsIT1_EENS1_11float_specsENS1_10locale_refE, symObjAddr: 0xB254, symBinAddr: 0xEF50, symSize: 0x680 }
  - { offset: 0x48610, size: 0x8, addend: 0x0, symName: __ZN3fmt3v106detail12write_paddedILNS0_5align4typeE2ENS0_8appenderEcRZNS1_14do_write_floatIS5_NS1_9dragonbox10decimal_fpIdEEcNS1_14digit_groupingIcEEEET_SC_RKT0_RKNS0_12format_specsIT1_EENS1_11float_specsENS1_10locale_refEEUlS5_E1_EESD_SD_SK_mmOT2_, symObjAddr: 0xC140, symBinAddr: 0xFE3C, symSize: 0x188 }
  - { offset: 0x48886, size: 0x8, addend: 0x0, symName: __ZN3fmt3v106detail17write_significandINS0_8appenderEcyNS1_14digit_groupingIcEEEET_S6_T1_iiT0_RKT2_, symObjAddr: 0xC2C8, symBinAddr: 0xFFC4, symSize: 0x178 }
  - { offset: 0x4894E, size: 0x8, addend: 0x0, symName: __ZN3fmt3v106detail17write_significandIcyLi0EEEPT_S4_T0_iiS3_, symObjAddr: 0xBA38, symBinAddr: 0xF734, symSize: 0x240 }
  - { offset: 0x48BD7, size: 0x8, addend: 0x0, symName: __ZZN3fmt3v106detail14do_write_floatINS0_8appenderENS1_9dragonbox10decimal_fpIdEEcNS1_14digit_groupingIcEEEET_S9_RKT0_RKNS0_12format_specsIT1_EENS1_11float_specsENS1_10locale_refEENKUlS3_E0_clES3_, symObjAddr: 0xBC78, symBinAddr: 0xF974, symSize: 0x13C }
  - { offset: 0x48C03, size: 0x8, addend: 0x0, symName: __ZN3fmt3v106detail17write_significandIcNS0_8appenderEyNS1_14digit_groupingIcEEEET0_S6_T1_iiRKT2_, symObjAddr: 0xBDB4, symBinAddr: 0xFAB0, symSize: 0x38C }
  - { offset: 0x4948A, size: 0x8, addend: 0x0, symName: __ZN3fmt3v106detail17write_significandINS0_8appenderEcyNS1_14digit_groupingIcEEEET_S6_T1_iiT0_RKT2_, symObjAddr: 0xC2C8, symBinAddr: 0xFFC4, symSize: 0x178 }
  - { offset: 0x49E36, size: 0x8, addend: 0x0, symName: __ZN3fmt3v106detail15do_parse_arg_idIcRZNS1_23parse_replacement_fieldIcRZNS1_10vformat_toIcEEvRNS1_6bufferIT_EENS0_17basic_string_viewIS6_EENS1_12vformat_argsIS6_E4typeENS1_10locale_refEE14format_handlerEEPKS6_SI_SI_OT0_E10id_adapterEESI_SI_SI_SK_, symObjAddr: 0xDDC8, symBinAddr: 0x11874, symSize: 0x254 }
  - { offset: 0x4AA40, size: 0x8, addend: 0x0, symName: __ZN3fmt3v106detail18parse_dynamic_specIcEEPKT_S5_S5_RiRNS1_7arg_refIS3_EERNS0_26basic_format_parse_contextIS3_EE, symObjAddr: 0xE224, symBinAddr: 0x11CD0, symSize: 0x188 }
  - { offset: 0x4ABFF, size: 0x8, addend: 0x0, symName: __ZN3fmt3v106detail15do_parse_arg_idIcRNS1_23dynamic_spec_id_handlerIcEEEEPKT_S8_S8_OT0_, symObjAddr: 0xE3AC, symBinAddr: 0x11E58, symSize: 0x1BC }
  - { offset: 0x4AC13, size: 0x8, addend: 0x0, symName: __ZN3fmt3v106detail19handle_dynamic_specINS1_13width_checkerENS0_20basic_format_contextINS0_8appenderEcEEEEvRiNS1_7arg_refINT0_9char_typeEEERS9_, symObjAddr: 0xE01C, symBinAddr: 0x11AC8, symSize: 0x104 }
  - { offset: 0x4ADC1, size: 0x8, addend: 0x0, symName: __ZN3fmt3v106detail19handle_dynamic_specINS1_17precision_checkerENS0_20basic_format_contextINS0_8appenderEcEEEEvRiNS1_7arg_refINT0_9char_typeEEERS9_, symObjAddr: 0xE120, symBinAddr: 0x11BCC, symSize: 0x104 }
  - { offset: 0x4B3EF, size: 0x8, addend: 0x0, symName: __ZN3fmt3v106detail18write_int_noinlineIcNS0_8appenderEyEET0_S4_NS1_13write_int_argIT1_EERKNS0_12format_specsIT_EENS1_10locale_refE, symObjAddr: 0xE7A0, symBinAddr: 0x1224C, symSize: 0x920 }
  - { offset: 0x4C4EC, size: 0x8, addend: 0x0, symName: __ZZN3fmt3v106detail9write_intINS0_8appenderEcZNS1_9write_intIcS3_yEET0_S5_NS1_13write_int_argIT1_EERKNS0_12format_specsIT_EENS1_10locale_refEEUlS3_E_EESA_SA_ijRKNS9_IS5_EES7_ENKUlS3_E_clES3_, symObjAddr: 0xF0C0, symBinAddr: 0x12B6C, symSize: 0x1F0 }
  - { offset: 0x4C512, size: 0x8, addend: 0x0, symName: __ZN3fmt3v106detail11write_floatIcNS0_8appenderEfEET0_S4_T1_NS0_12format_specsIT_EENS1_10locale_refE, symObjAddr: 0x10C50, symBinAddr: 0x146FC, symSize: 0x344 }
  - { offset: 0x4CC88, size: 0x8, addend: 0x0, symName: __ZN3fmt3v106detail5writeIcNS0_8appenderEEET0_S4_NS0_17basic_string_viewIT_EERKNS0_12format_specsIS6_EE, symObjAddr: 0x158DC, symBinAddr: 0x18F34, symSize: 0x238 }
  - { offset: 0x4D05D, size: 0x8, addend: 0x0, symName: __ZN3fmt3v106detail20write_escaped_stringIcNS1_17counting_iteratorEEET0_S4_NS0_17basic_string_viewIT_EE, symObjAddr: 0x15B14, symBinAddr: 0x1916C, symSize: 0x148 }
  - { offset: 0x4D0D8, size: 0x8, addend: 0x0, symName: __ZN3fmt3v106detail18write_int_noinlineIcNS0_8appenderEoEET0_S4_NS1_13write_int_argIT1_EERKNS0_12format_specsIT_EENS1_10locale_refE, symObjAddr: 0xF808, symBinAddr: 0x132B4, symSize: 0xAE0 }
  - { offset: 0x4E1ED, size: 0x8, addend: 0x0, symName: __ZZN3fmt3v106detail9write_intINS0_8appenderEcZNS1_9write_intIcS3_oEET0_S5_NS1_13write_int_argIT1_EERKNS0_12format_specsIT_EENS1_10locale_refEEUlS3_E_EESA_SA_ijRKNS9_IS5_EES7_ENKUlS3_E_clES3_, symObjAddr: 0x102E8, symBinAddr: 0x13D94, symSize: 0x294 }
  - { offset: 0x4E21C, size: 0x8, addend: 0x0, symName: __ZN3fmt3v106detail11write_floatIcNS0_8appenderEdEET0_S4_T1_NS0_12format_specsIT_EENS1_10locale_refE, symObjAddr: 0x15254, symBinAddr: 0x18BF0, symSize: 0x344 }
  - { offset: 0x4EA59, size: 0x8, addend: 0x0, symName: __ZN3fmt3v106detail16get_dynamic_specINS1_13width_checkerENS0_16basic_format_argINS0_20basic_format_contextINS0_8appenderEcEEEEEEiT0_, symObjAddr: 0xE568, symBinAddr: 0x12014, symSize: 0x90 }
  - { offset: 0x4EB29, size: 0x8, addend: 0x0, symName: __ZNK3fmt3v1017basic_format_argsINS0_20basic_format_contextINS0_8appenderEcEEE3getIcEENS0_16basic_format_argIS4_EENS0_17basic_string_viewIT_EE, symObjAddr: 0xE5F8, symBinAddr: 0x120A4, symSize: 0x118 }
  - { offset: 0x4EB46, size: 0x8, addend: 0x0, symName: __ZN3fmt3v106detail16get_dynamic_specINS1_17precision_checkerENS0_16basic_format_argINS0_20basic_format_contextINS0_8appenderEcEEEEEEiT0_, symObjAddr: 0xE710, symBinAddr: 0x121BC, symSize: 0x90 }
  - { offset: 0x4EC16, size: 0x8, addend: 0x0, symName: __ZN3fmt3v106detail18write_int_noinlineIcNS0_8appenderEyEET0_S4_NS1_13write_int_argIT1_EERKNS0_12format_specsIT_EENS1_10locale_refE, symObjAddr: 0xE7A0, symBinAddr: 0x1224C, symSize: 0x920 }
  - { offset: 0x4EC8C, size: 0x8, addend: 0x0, symName: __ZN3fmt3v106detail15do_parse_arg_idIcRNS1_23dynamic_spec_id_handlerIcEEEEPKT_S8_S8_OT0_, symObjAddr: 0xE3AC, symBinAddr: 0x11E58, symSize: 0x1BC }
  - { offset: 0x5071E, size: 0x8, addend: 0x0, symName: __ZN3fmt3v106detail21parse_float_type_specIcEENS1_11float_specsERKNS0_12format_specsIT_EE, symObjAddr: 0x10F94, symBinAddr: 0x14A40, symSize: 0xB8 }
  - { offset: 0x50763, size: 0x8, addend: 0x0, symName: __ZN3fmt3v106detail15format_hexfloatIdLi0EEEvT_iNS1_11float_specsERNS1_6bufferIcEE, symObjAddr: 0x1104C, symBinAddr: 0x14AF8, symSize: 0x578 }
  - { offset: 0x50777, size: 0x8, addend: 0x0, symName: __ZN3fmt3v106detail12write_paddedILNS0_5align4typeE2ENS0_8appenderEcRZNS1_11write_bytesILS4_2EcS5_EET1_S7_NS0_17basic_string_viewIcEERKNS0_12format_specsIT0_EEEUlS5_E_EESB_SB_RKNSA_IS7_EEmmOT2_, symObjAddr: 0x11D74, symBinAddr: 0x15820, symSize: 0x208 }
  - { offset: 0x50A25, size: 0x8, addend: 0x0, symName: __ZN3fmt3v106detail13format_dragonENS1_8basic_fpIoEEjiRNS1_6bufferIcEERi, symObjAddr: 0x11F7C, symBinAddr: 0x15A28, symSize: 0xF74 }
  - { offset: 0x50A5E, size: 0x8, addend: 0x0, symName: __ZN3fmt3v106detail12format_floatIdEEiT_iNS1_11float_specsERNS1_6bufferIcEE, symObjAddr: 0x115C4, symBinAddr: 0x15070, symSize: 0x7B0 }
  - { offset: 0x515E8, size: 0x8, addend: 0x0, symName: __ZN3fmt3v106detail14do_write_floatINS0_8appenderENS1_14big_decimal_fpEcNS1_14digit_groupingIcEEEET_S7_RKT0_RKNS0_12format_specsIT1_EENS1_11float_specsENS1_10locale_refE, symObjAddr: 0x13E78, symBinAddr: 0x17814, symSize: 0x658 }
  - { offset: 0x524EA, size: 0x8, addend: 0x0, symName: __ZN3fmt3v106detail13format_dragonENS1_8basic_fpIoEEjiRNS1_6bufferIcEERi, symObjAddr: 0x11F7C, symBinAddr: 0x15A28, symSize: 0xF74 }
  - { offset: 0x55254, size: 0x8, addend: 0x0, symName: __ZN3fmt3v106detail11add_compareERKNS1_6bigintES4_S4_, symObjAddr: 0x131B4, symBinAddr: 0x16C60, symSize: 0x15C }
  - { offset: 0x55616, size: 0x8, addend: 0x0, symName: __ZN3fmt3v106detail6bigint13divmod_assignERKS2_, symObjAddr: 0x13310, symBinAddr: 0x16DBC, symSize: 0x2F8 }
  - { offset: 0x55AA4, size: 0x8, addend: 0x0, symName: __ZN3fmt3v106detail12write_paddedILNS0_5align4typeE2ENS0_8appenderEcRZNS1_14do_write_floatIS5_NS1_14big_decimal_fpEcNS1_14digit_groupingIcEEEET_SA_RKT0_RKNS0_12format_specsIT1_EENS1_11float_specsENS1_10locale_refEEUlS5_E1_EESB_SB_SI_mmOT2_, symObjAddr: 0x14BD8, symBinAddr: 0x18574, symSize: 0x188 }
  - { offset: 0x55D1A, size: 0x8, addend: 0x0, symName: __ZN3fmt3v106detail17write_significandINS0_8appenderEcPKcNS1_14digit_groupingIcEEEET_S8_T1_iiT0_RKT2_, symObjAddr: 0x14D60, symBinAddr: 0x186FC, symSize: 0x238 }
  - { offset: 0x55DB9, size: 0x8, addend: 0x0, symName: __ZN3fmt3v106detail17write_significandIcNS0_8appenderEPKcNS1_14digit_groupingIcEEEET0_S8_T1_iiRKT2_, symObjAddr: 0x14784, symBinAddr: 0x18120, symSize: 0x454 }
  - { offset: 0x56640, size: 0x8, addend: 0x0, symName: __ZN3fmt3v106detail17write_significandINS0_8appenderEcPKcNS1_14digit_groupingIcEEEET_S8_T1_iiT0_RKT2_, symObjAddr: 0x14D60, symBinAddr: 0x186FC, symSize: 0x238 }
  - { offset: 0x57033, size: 0x8, addend: 0x0, symName: __ZN3fmt3v106detail20write_escaped_stringIcNS1_17counting_iteratorEEET0_S4_NS0_17basic_string_viewIT_EE, symObjAddr: 0x15B14, symBinAddr: 0x1916C, symSize: 0x148 }
  - { offset: 0x57324, size: 0x8, addend: 0x0, symName: __ZN3fmt3v106detail12write_paddedILNS0_5align4typeE1ENS0_8appenderEcZNS1_5writeIcS5_EET0_S7_NS0_17basic_string_viewIT_EERKNS0_12format_specsIS9_EEEUlS5_E_EES7_S7_RKNSB_IT1_EEmmOT2_, symObjAddr: 0x15C5C, symBinAddr: 0x192B4, symSize: 0x220 }
  - { offset: 0x5734A, size: 0x8, addend: 0x0, symName: __ZN3fmt3v106detail12write_paddedILNS0_5align4typeE1ENS0_8appenderEcZNS1_5writeIcS5_EET0_S7_NS0_17basic_string_viewIT_EERKNS0_12format_specsIS9_EEEUlS5_E_EES7_S7_RKNSB_IT1_EEmmOT2_, symObjAddr: 0x15C5C, symBinAddr: 0x192B4, symSize: 0x220 }
  - { offset: 0x575DF, size: 0x8, addend: 0x0, symName: __ZZN3fmt3v106detail18for_each_codepointIZNS1_16code_point_indexENS0_17basic_string_viewIcEEmEUljS4_E_EEvS4_T_ENKUlPKcS8_E_clES8_S8_, symObjAddr: 0x15E7C, symBinAddr: 0x194D4, symSize: 0x148 }
  - { offset: 0x57847, size: 0x8, addend: 0x0, symName: __ZN3fmt3v106detail16write_escaped_cpINS1_17counting_iteratorEcEET_S4_RKNS1_18find_escape_resultIT0_EE, symObjAddr: 0x15FC4, symBinAddr: 0x1961C, symSize: 0x1C4 }
  - { offset: 0x57BA7, size: 0x8, addend: 0x0, symName: __ZZN3fmt3v106detail18for_each_codepointIZNS1_11find_escapeEPKcS4_EUljNS0_17basic_string_viewIcEEE_EEvS6_T_ENKUlS4_S4_E_clES4_S4_, symObjAddr: 0x16188, symBinAddr: 0x197E0, symSize: 0x190 }
  - { offset: 0x57BCD, size: 0x8, addend: 0x0, symName: __ZN3fmt3v106detail20write_escaped_stringIcNS0_8appenderEEET0_S4_NS0_17basic_string_viewIT_EE, symObjAddr: 0x16500, symBinAddr: 0x19B58, symSize: 0x2E0 }
  - { offset: 0x5822F, size: 0x8, addend: 0x0, symName: __ZN3fmt3v1012format_facetINSt3__16localeEE2idE, symObjAddr: 0x18538, symBinAddr: 0x71C3B8, symSize: 0x0 }
  - { offset: 0x5997A, size: 0x8, addend: 0x0, symName: __ZN3fmt3v106detail9dragonbox14cache_accessorIdE16get_cached_powerEi, symObjAddr: 0xB128, symBinAddr: 0xEE24, symSize: 0x12C }
  - { offset: 0x5999B, size: 0x8, addend: 0x0, symName: __ZZN3fmt3v106detail9dragonbox14cache_accessorIdE16get_cached_powerEiE18pow10_significands, symObjAddr: 0x18160, symBinAddr: 0x5EA258, symSize: 0x0 }
  - { offset: 0x599B2, size: 0x8, addend: 0x0, symName: __ZZN3fmt3v106detail9dragonbox14cache_accessorIdE16get_cached_powerEiE14powers_of_5_64, symObjAddr: 0x182E0, symBinAddr: 0x5EA3D8, symSize: 0x0 }
  - { offset: 0x5C013, size: 0x8, addend: 0x0, symName: __ZN8x_logger15try_log_messageIJNSt3__112basic_stringIcNS1_11char_traitsIcEENS1_9allocatorIcEEEEEEEvNS_10level_enumERKS7_DpOT_, symObjAddr: 0x5FC, symBinAddr: 0x45FC, symSize: 0x1A0 }
  - { offset: 0x5D3EC, size: 0x8, addend: 0x0, symName: __ZN10SmartStart3runEv, symObjAddr: 0x79C, symBinAddr: 0x479C, symSize: 0x1F0 }
  - { offset: 0x5E1C4, size: 0x8, addend: 0x0, symName: __ZNSt3__110shared_ptrI10SmartStartED1B8ne180100Ev, symObjAddr: 0x0, symBinAddr: 0x4000, symSize: 0x58 }
  - { offset: 0x5E529, size: 0x8, addend: 0x0, symName: __ZN10SmartStartC2ERKN5mimik5model2v110NodeConfigE, symObjAddr: 0x58, symBinAddr: 0x4058, symSize: 0x84 }
  - { offset: 0x5E836, size: 0x8, addend: 0x0, symName: __ZN5mimik5model2v110NodeConfigC2ERKS2_, symObjAddr: 0x12B4, symBinAddr: 0x52B4, symSize: 0x53C }
  - { offset: 0x5FFA4, size: 0x8, addend: 0x0, symName: __ZN5mimik5model2v110NodeConfigD2Ev, symObjAddr: 0x2058, symBinAddr: 0x6058, symSize: 0x160 }
  - { offset: 0x60FA4, size: 0x8, addend: 0x0, symName: __ZN10SmartStartC1ERKN5mimik5model2v110NodeConfigE, symObjAddr: 0xDC, symBinAddr: 0x40DC, symSize: 0x84 }
  - { offset: 0x61653, size: 0x8, addend: 0x0, symName: __ZN10SmartStart4makeERKN5mimik5model2v110NodeConfigE, symObjAddr: 0x160, symBinAddr: 0x4160, symSize: 0xE0 }
  - { offset: 0x61B07, size: 0x8, addend: 0x0, symName: __ZN10SmartStartD2Ev, symObjAddr: 0x240, symBinAddr: 0x4240, symSize: 0xD4 }
  - { offset: 0x61F29, size: 0x8, addend: 0x0, symName: __ZNSt3__17promiseIiED2Ev, symObjAddr: 0x2374, symBinAddr: 0x6374, symSize: 0xD0 }
  - { offset: 0x620F2, size: 0x8, addend: 0x0, symName: __ZN10SmartStart4stopEv, symObjAddr: 0x314, symBinAddr: 0x4314, symSize: 0x5C }
  - { offset: 0x62217, size: 0x8, addend: 0x0, symName: __ZN10SmartStartD1Ev, symObjAddr: 0x380, symBinAddr: 0x4380, symSize: 0x4 }
  - { offset: 0x6223B, size: 0x8, addend: 0x0, symName: __ZN10SmartStartD1Ev, symObjAddr: 0x380, symBinAddr: 0x4380, symSize: 0x4 }
  - { offset: 0x6283D, size: 0x8, addend: 0x0, symName: __ZN10SmartStart5startEv, symObjAddr: 0x384, symBinAddr: 0x4384, symSize: 0x278 }
  - { offset: 0x639F9, size: 0x8, addend: 0x0, symName: __ZNSt3__113__assoc_stateIiE4moveEv, symObjAddr: 0x25B8, symBinAddr: 0x65B8, symSize: 0xC0 }
  - { offset: 0x64F00, size: 0x8, addend: 0x0, symName: __ZN5mimik6runner3lib10EdgeRunner5startERKNSt3__112basic_stringIcNS3_11char_traitsIcEENS3_9allocatorIcEEEESB_iSB_RKNS3_8functionIFvvEEERKNS3_6vectorIS9_NS7_IS9_EEEE, symObjAddr: 0x98C, symBinAddr: 0x498C, symSize: 0x6CC }
  - { offset: 0x6757A, size: 0x8, addend: 0x0, symName: __ZNSt3__16vectorINS_12basic_stringIcNS_11char_traitsIcEENS_9allocatorIcEEEENS4_IS6_EEE16__init_with_sizeB8ne180100IPS6_SA_EEvT_T0_m, symObjAddr: 0x2BC8, symBinAddr: 0x6A28, symSize: 0x124 }
  - { offset: 0x67B27, size: 0x8, addend: 0x0, symName: __ZNSt3__16__treeINS_12__value_typeINS_12basic_stringIcNS_11char_traitsIcEENS_9allocatorIcEEEES7_EENS_19__map_value_compareIS7_S8_NS_4lessIS7_EELb1EEENS5_IS8_EEE25__emplace_unique_key_argsIS7_JRKNS_21piecewise_construct_tENS_5tupleIJOS7_EEENSJ_IJEEEEEENS_4pairINS_15__tree_iteratorIS8_PNS_11__tree_nodeIS8_PvEElEEbEERKT_DpOT0_, symObjAddr: 0x3088, symBinAddr: 0x6EE8, symSize: 0x17C }
  - { offset: 0x681B1, size: 0x8, addend: 0x0, symName: __ZNSt3__112basic_stringIcNS_11char_traitsIcEENS_9allocatorIcEEE25__init_copy_ctor_externalEPKcm, symObjAddr: 0x21B8, symBinAddr: 0x61B8, symSize: 0x8C }
  - { offset: 0x68558, size: 0x8, addend: 0x0, symName: __ZNKSt3__112basic_stringIcNS_11char_traitsIcEENS_9allocatorIcEEE20__throw_length_errorB8ne180100Ev, symObjAddr: 0x2244, symBinAddr: 0x6244, symSize: 0x14 }
  - { offset: 0x68577, size: 0x8, addend: 0x0, symName: __ZN8x_logger14LogInitContextD1Ev, symObjAddr: 0x1158, symBinAddr: 0x5158, symSize: 0x4C }
  - { offset: 0x687FE, size: 0x8, addend: 0x0, symName: __ZNSt3__16vectorINS_12basic_stringIcNS_11char_traitsIcEENS_9allocatorIcEEEENS4_IS6_EEED1B8ne180100Ev, symObjAddr: 0x1058, symBinAddr: 0x5058, symSize: 0x70 }
  - { offset: 0x68A9D, size: 0x8, addend: 0x0, symName: __ZN3cpp12bitwizeshift6resultIN5mimik5model2v110NodeConfigENS2_11ConfigErrorEED1Ev, symObjAddr: 0x11A4, symBinAddr: 0x51A4, symSize: 0x44 }
  - { offset: 0x68DDB, size: 0x8, addend: 0x0, symName: __ZN5mimik6runner3lib10EdgeRunner4stopEv, symObjAddr: 0x11E8, symBinAddr: 0x51E8, symSize: 0xB8 }
  - { offset: 0x690F4, size: 0x8, addend: 0x0, symName: __ZN5mimik6runner3lib10EdgeRunner9getStatusEv, symObjAddr: 0x12A0, symBinAddr: 0x52A0, symSize: 0x14 }
  - { offset: 0x69112, size: 0x8, addend: 0x0, symName: __ZN5mimik6runner3lib10EdgeRunner9getStatusEv, symObjAddr: 0x12A0, symBinAddr: 0x52A0, symSize: 0x14 }
  - { offset: 0x69408, size: 0x8, addend: 0x0, symName: __ZNSt3__13mapINS_12basic_stringIcNS_11char_traitsIcEENS_9allocatorIcEEEES6_NS_4lessIS6_EENS4_INS_4pairIKS6_S6_EEEEE6insertB8ne180100INS_20__map_const_iteratorINS_21__tree_const_iteratorINS_12__value_typeIS6_S6_EEPNS_11__tree_nodeISI_PvEElEEEEEEvT_SP_, symObjAddr: 0x17F0, symBinAddr: 0x57F0, symSize: 0x108 }
  - { offset: 0x69450, size: 0x8, addend: 0x0, symName: __ZNSt3__13mapINS_12basic_stringIcNS_11char_traitsIcEENS_9allocatorIcEEEES6_NS_4lessIS6_EENS4_INS_4pairIKS6_S6_EEEEE6insertB8ne180100INS_20__map_const_iteratorINS_21__tree_const_iteratorINS_12__value_typeIS6_S6_EEPNS_11__tree_nodeISI_PvEElEEEEEEvT_SP_, symObjAddr: 0x17F0, symBinAddr: 0x57F0, symSize: 0x108 }
  - { offset: 0x696B5, size: 0x8, addend: 0x0, symName: __ZNSt3__16__treeINS_12__value_typeINS_12basic_stringIcNS_11char_traitsIcEENS_9allocatorIcEEEES7_EENS_19__map_value_compareIS7_S8_NS_4lessIS7_EELb1EEENS5_IS8_EEE7destroyEPNS_11__tree_nodeIS8_PvEE, symObjAddr: 0x1FEC, symBinAddr: 0x5FEC, symSize: 0x6C }
  - { offset: 0x69C83, size: 0x8, addend: 0x0, symName: __ZNSt3__16__treeINS_12__value_typeINS_12basic_stringIcNS_11char_traitsIcEENS_9allocatorIcEEEES7_EENS_19__map_value_compareIS7_S8_NS_4lessIS7_EELb1EEENS5_IS8_EEE12__find_equalIS7_EERPNS_16__tree_node_baseIPvEENS_21__tree_const_iteratorIS8_PNS_11__tree_nodeIS8_SH_EElEERPNS_15__tree_end_nodeISJ_EESK_RKT_, symObjAddr: 0x18F8, symBinAddr: 0x58F8, symSize: 0x3F8 }
  - { offset: 0x6A975, size: 0x8, addend: 0x0, symName: __ZNSt3__16__treeINS_12__value_typeINS_12basic_stringIcNS_11char_traitsIcEENS_9allocatorIcEEEES7_EENS_19__map_value_compareIS7_S8_NS_4lessIS7_EELb1EEENS5_IS8_EEE16__construct_nodeIJRKNS_4pairIKS7_S7_EEEEENS_10unique_ptrINS_11__tree_nodeIS8_PvEENS_22__tree_node_destructorINS5_ISO_EEEEEEDpOT_, symObjAddr: 0x1CF0, symBinAddr: 0x5CF0, symSize: 0xCC }
  - { offset: 0x6B2FE, size: 0x8, addend: 0x0, symName: __ZNSt3__110unique_ptrINS_11__tree_nodeINS_12__value_typeINS_12basic_stringIcNS_11char_traitsIcEENS_9allocatorIcEEEES8_EEPvEENS_22__tree_node_destructorINS6_ISB_EEEEED1B8ne180100Ev, symObjAddr: 0x1DBC, symBinAddr: 0x5DBC, symSize: 0x68 }
  - { offset: 0x6B8B7, size: 0x8, addend: 0x0, symName: __ZNKSt3__112basic_stringIcNS_11char_traitsIcEENS_9allocatorIcEEE20__throw_length_errorB8ne180100Ev, symObjAddr: 0x2244, symBinAddr: 0x6244, symSize: 0x14 }
  - { offset: 0x6B8E1, size: 0x8, addend: 0x0, symName: __ZNSt3__120__throw_length_errorB8ne180100EPKc, symObjAddr: 0x2258, symBinAddr: 0x6258, symSize: 0x50 }
  - { offset: 0x6B8EC, size: 0x8, addend: 0x0, symName: __ZNSt12length_errorC1B8ne180100EPKc, symObjAddr: 0x22A8, symBinAddr: 0x62A8, symSize: 0x24 }
  - { offset: 0x6B9B3, size: 0x8, addend: 0x0, symName: __ZNSt3__113__assoc_stateIiED1Ev, symObjAddr: 0x22CC, symBinAddr: 0x62CC, symSize: 0x4C }
  - { offset: 0x6BA35, size: 0x8, addend: 0x0, symName: __ZNSt3__113__assoc_stateIiED0Ev, symObjAddr: 0x2318, symBinAddr: 0x6318, symSize: 0x50 }
  - { offset: 0x6BAC0, size: 0x8, addend: 0x0, symName: __ZNSt3__113__assoc_stateIiE16__on_zero_sharedEv, symObjAddr: 0x2368, symBinAddr: 0x6368, symSize: 0xC }
  - { offset: 0x6BBEC, size: 0x8, addend: 0x0, symName: __ZNSt3__120__shared_ptr_pointerIP10SmartStartNS_10shared_ptrIS1_E27__shared_ptr_default_deleteIS1_S1_EENS_9allocatorIS1_EEED1Ev, symObjAddr: 0x24B8, symBinAddr: 0x64B8, symSize: 0x4 }
  - { offset: 0x6BC10, size: 0x8, addend: 0x0, symName: __ZNSt3__120__shared_ptr_pointerIP10SmartStartNS_10shared_ptrIS1_E27__shared_ptr_default_deleteIS1_S1_EENS_9allocatorIS1_EEED1Ev, symObjAddr: 0x24B8, symBinAddr: 0x64B8, symSize: 0x4 }
  - { offset: 0x6BC47, size: 0x8, addend: 0x0, symName: __ZNSt3__120__shared_ptr_pointerIP10SmartStartNS_10shared_ptrIS1_E27__shared_ptr_default_deleteIS1_S1_EENS_9allocatorIS1_EEED0Ev, symObjAddr: 0x24BC, symBinAddr: 0x64BC, symSize: 0x14 }
  - { offset: 0x6BCAE, size: 0x8, addend: 0x0, symName: __ZNSt3__120__shared_ptr_pointerIP10SmartStartNS_10shared_ptrIS1_E27__shared_ptr_default_deleteIS1_S1_EENS_9allocatorIS1_EEE16__on_zero_sharedEv, symObjAddr: 0x24D0, symBinAddr: 0x64D0, symSize: 0x24 }
  - { offset: 0x6BD7D, size: 0x8, addend: 0x0, symName: __ZNKSt3__120__shared_ptr_pointerIP10SmartStartNS_10shared_ptrIS1_E27__shared_ptr_default_deleteIS1_S1_EENS_9allocatorIS1_EEE13__get_deleterERKSt9type_info, symObjAddr: 0x24F4, symBinAddr: 0x64F4, symSize: 0x64 }
  - { offset: 0x6BE91, size: 0x8, addend: 0x0, symName: __ZNSt3__120__shared_ptr_pointerIP10SmartStartNS_10shared_ptrIS1_E27__shared_ptr_default_deleteIS1_S1_EENS_9allocatorIS1_EEE21__on_zero_shared_weakEv, symObjAddr: 0x2558, symBinAddr: 0x6558, symSize: 0x4 }
  - { offset: 0x6BEC6, size: 0x8, addend: 0x0, symName: __ZNSt3__120__shared_ptr_pointerIP10SmartStartNS_10shared_ptrIS1_E27__shared_ptr_default_deleteIS1_S1_EENS_9allocatorIS1_EEE21__on_zero_shared_weakEv, symObjAddr: 0x2558, symBinAddr: 0x6558, symSize: 0x4 }
  - { offset: 0x6BEEA, size: 0x8, addend: 0x0, symName: __ZNSt3__120__shared_ptr_pointerIP10SmartStartNS_10shared_ptrIS1_E27__shared_ptr_default_deleteIS1_S1_EENS_9allocatorIS1_EEE21__on_zero_shared_weakEv, symObjAddr: 0x2558, symBinAddr: 0x6558, symSize: 0x4 }
  - { offset: 0x6BF19, size: 0x8, addend: 0x0, symName: __ZNSt3__120__shared_ptr_pointerIP10SmartStartNS_10shared_ptrIS1_E27__shared_ptr_default_deleteIS1_S1_EENS_9allocatorIS1_EEE21__on_zero_shared_weakEv, symObjAddr: 0x2558, symBinAddr: 0x6558, symSize: 0x4 }
  - { offset: 0x6BF42, size: 0x8, addend: 0x0, symName: __ZNSt3__120__shared_ptr_pointerIP10SmartStartNS_10shared_ptrIS1_E27__shared_ptr_default_deleteIS1_S1_EENS_9allocatorIS1_EEE21__on_zero_shared_weakEv, symObjAddr: 0x2558, symBinAddr: 0x6558, symSize: 0x4 }
  - { offset: 0x6BF88, size: 0x8, addend: 0x0, symName: __ZNSt3__120__shared_ptr_emplaceIN5mimik8EdgeInitENS_9allocatorIS2_EEED1Ev, symObjAddr: 0x2678, symBinAddr: 0x6678, symSize: 0x14 }
  - { offset: 0x6BFAC, size: 0x8, addend: 0x0, symName: __ZNSt3__120__shared_ptr_emplaceIN5mimik8EdgeInitENS_9allocatorIS2_EEED1Ev, symObjAddr: 0x2678, symBinAddr: 0x6678, symSize: 0x14 }
  - { offset: 0x6BFE3, size: 0x8, addend: 0x0, symName: __ZNSt3__120__shared_ptr_emplaceIN5mimik8EdgeInitENS_9allocatorIS2_EEED0Ev, symObjAddr: 0x268C, symBinAddr: 0x668C, symSize: 0x24 }
  - { offset: 0x6C198, size: 0x8, addend: 0x0, symName: __ZNSt3__120__shared_ptr_emplaceIN5mimik8EdgeInitENS_9allocatorIS2_EEE16__on_zero_sharedEv, symObjAddr: 0x26B0, symBinAddr: 0x66B0, symSize: 0x9C }
  - { offset: 0x6C3AF, size: 0x8, addend: 0x0, symName: __ZNSt3__120__shared_ptr_emplaceIN5mimik8EdgeInitENS_9allocatorIS2_EEE21__on_zero_shared_weakEv, symObjAddr: 0x274C, symBinAddr: 0x674C, symSize: 0x4 }
  - { offset: 0x6C3E4, size: 0x8, addend: 0x0, symName: __ZNSt3__120__shared_ptr_emplaceIN5mimik8EdgeInitENS_9allocatorIS2_EEE21__on_zero_shared_weakEv, symObjAddr: 0x274C, symBinAddr: 0x674C, symSize: 0x4 }
  - { offset: 0x6C409, size: 0x8, addend: 0x0, symName: __ZNSt3__120__shared_ptr_emplaceIN5mimik8EdgeInitENS_9allocatorIS2_EEE21__on_zero_shared_weakEv, symObjAddr: 0x274C, symBinAddr: 0x674C, symSize: 0x4 }
  - { offset: 0x6C42E, size: 0x8, addend: 0x0, symName: __ZNSt3__120__shared_ptr_emplaceIN5mimik8EdgeInitENS_9allocatorIS2_EEE21__on_zero_shared_weakEv, symObjAddr: 0x274C, symBinAddr: 0x674C, symSize: 0x4 }
  - { offset: 0x6C45F, size: 0x8, addend: 0x0, symName: __ZNSt3__120__shared_ptr_emplaceIN5mimik8EdgeInitENS_9allocatorIS2_EEE21__on_zero_shared_weakEv, symObjAddr: 0x274C, symBinAddr: 0x674C, symSize: 0x4 }
  - { offset: 0x6C48A, size: 0x8, addend: 0x0, symName: __ZNSt3__120__shared_ptr_emplaceIN5mimik8EdgeInitENS_9allocatorIS2_EEE21__on_zero_shared_weakEv, symObjAddr: 0x274C, symBinAddr: 0x674C, symSize: 0x4 }
  - { offset: 0x6C4B6, size: 0x8, addend: 0x0, symName: '__ZNSt3__110__function6__funcIZN10SmartStart3runEvE3$_0NS_9allocatorIS3_EEFvRKNS_10shared_ptrIN14module_runtime11AsyncResultEEERKNS6_INS7_10AsyncErrorEEEEED1Ev', symObjAddr: 0x2750, symBinAddr: 0x6750, symSize: 0x4 }
  - { offset: 0x6C4E1, size: 0x8, addend: 0x0, symName: '__ZNSt3__110__function6__funcIZN10SmartStart3runEvE3$_0NS_9allocatorIS3_EEFvRKNS_10shared_ptrIN14module_runtime11AsyncResultEEERKNS6_INS7_10AsyncErrorEEEEED0Ev', symObjAddr: 0x2754, symBinAddr: 0x6754, symSize: 0x4 }
  - { offset: 0x6C6F5, size: 0x8, addend: 0x0, symName: '__ZNKSt3__110__function6__funcIZN10SmartStart3runEvE3$_0NS_9allocatorIS3_EEFvRKNS_10shared_ptrIN14module_runtime11AsyncResultEEERKNS6_INS7_10AsyncErrorEEEEE7__cloneEv', symObjAddr: 0x2758, symBinAddr: 0x6758, symSize: 0x34 }
  - { offset: 0x6CA0F, size: 0x8, addend: 0x0, symName: '__ZNKSt3__110__function6__funcIZN10SmartStart3runEvE3$_0NS_9allocatorIS3_EEFvRKNS_10shared_ptrIN14module_runtime11AsyncResultEEERKNS6_INS7_10AsyncErrorEEEEE7__cloneEPNS0_6__baseISG_EE', symObjAddr: 0x278C, symBinAddr: 0x678C, symSize: 0x14 }
  - { offset: 0x6CA48, size: 0x8, addend: 0x0, symName: '__ZNKSt3__110__function6__funcIZN10SmartStart3runEvE3$_0NS_9allocatorIS3_EEFvRKNS_10shared_ptrIN14module_runtime11AsyncResultEEERKNS6_INS7_10AsyncErrorEEEEE7__cloneEPNS0_6__baseISG_EE', symObjAddr: 0x278C, symBinAddr: 0x678C, symSize: 0x14 }
  - { offset: 0x6CA7A, size: 0x8, addend: 0x0, symName: '__ZNKSt3__110__function6__funcIZN10SmartStart3runEvE3$_0NS_9allocatorIS3_EEFvRKNS_10shared_ptrIN14module_runtime11AsyncResultEEERKNS6_INS7_10AsyncErrorEEEEE7__cloneEPNS0_6__baseISG_EE', symObjAddr: 0x278C, symBinAddr: 0x678C, symSize: 0x14 }
  - { offset: 0x6CAAC, size: 0x8, addend: 0x0, symName: '__ZNKSt3__110__function6__funcIZN10SmartStart3runEvE3$_0NS_9allocatorIS3_EEFvRKNS_10shared_ptrIN14module_runtime11AsyncResultEEERKNS6_INS7_10AsyncErrorEEEEE7__cloneEPNS0_6__baseISG_EE', symObjAddr: 0x278C, symBinAddr: 0x678C, symSize: 0x14 }
  - { offset: 0x6CAC2, size: 0x8, addend: 0x0, symName: '__ZNKSt3__110__function6__funcIZN10SmartStart3runEvE3$_0NS_9allocatorIS3_EEFvRKNS_10shared_ptrIN14module_runtime11AsyncResultEEERKNS6_INS7_10AsyncErrorEEEEE7__cloneEPNS0_6__baseISG_EE', symObjAddr: 0x278C, symBinAddr: 0x678C, symSize: 0x14 }
  - { offset: 0x6CAD7, size: 0x8, addend: 0x0, symName: '__ZNKSt3__110__function6__funcIZN10SmartStart3runEvE3$_0NS_9allocatorIS3_EEFvRKNS_10shared_ptrIN14module_runtime11AsyncResultEEERKNS6_INS7_10AsyncErrorEEEEE7__cloneEPNS0_6__baseISG_EE', symObjAddr: 0x278C, symBinAddr: 0x678C, symSize: 0x14 }
  - { offset: 0x6CAEC, size: 0x8, addend: 0x0, symName: '__ZNKSt3__110__function6__funcIZN10SmartStart3runEvE3$_0NS_9allocatorIS3_EEFvRKNS_10shared_ptrIN14module_runtime11AsyncResultEEERKNS6_INS7_10AsyncErrorEEEEE7__cloneEPNS0_6__baseISG_EE', symObjAddr: 0x278C, symBinAddr: 0x678C, symSize: 0x14 }
  - { offset: 0x6CB01, size: 0x8, addend: 0x0, symName: '__ZNKSt3__110__function6__funcIZN10SmartStart3runEvE3$_0NS_9allocatorIS3_EEFvRKNS_10shared_ptrIN14module_runtime11AsyncResultEEERKNS6_INS7_10AsyncErrorEEEEE7__cloneEPNS0_6__baseISG_EE', symObjAddr: 0x278C, symBinAddr: 0x678C, symSize: 0x14 }
  - { offset: 0x6CB19, size: 0x8, addend: 0x0, symName: '__ZNSt3__110__function6__funcIZN10SmartStart3runEvE3$_0NS_9allocatorIS3_EEFvRKNS_10shared_ptrIN14module_runtime11AsyncResultEEERKNS6_INS7_10AsyncErrorEEEEE7destroyEv', symObjAddr: 0x27A0, symBinAddr: 0x67A0, symSize: 0x4 }
  - { offset: 0x6CB6C, size: 0x8, addend: 0x0, symName: '__ZNSt3__110__function6__funcIZN10SmartStart3runEvE3$_0NS_9allocatorIS3_EEFvRKNS_10shared_ptrIN14module_runtime11AsyncResultEEERKNS6_INS7_10AsyncErrorEEEEE18destroy_deallocateEv', symObjAddr: 0x27A4, symBinAddr: 0x67A4, symSize: 0x4 }
  - { offset: 0x6CBA3, size: 0x8, addend: 0x0, symName: '__ZNSt3__110__function6__funcIZN10SmartStart3runEvE3$_0NS_9allocatorIS3_EEFvRKNS_10shared_ptrIN14module_runtime11AsyncResultEEERKNS6_INS7_10AsyncErrorEEEEE18destroy_deallocateEv', symObjAddr: 0x27A4, symBinAddr: 0x67A4, symSize: 0x4 }
  - { offset: 0x6CBC8, size: 0x8, addend: 0x0, symName: '__ZNSt3__110__function6__funcIZN10SmartStart3runEvE3$_0NS_9allocatorIS3_EEFvRKNS_10shared_ptrIN14module_runtime11AsyncResultEEERKNS6_INS7_10AsyncErrorEEEEE18destroy_deallocateEv', symObjAddr: 0x27A4, symBinAddr: 0x67A4, symSize: 0x4 }
  - { offset: 0x6CBF7, size: 0x8, addend: 0x0, symName: '__ZNSt3__110__function6__funcIZN10SmartStart3runEvE3$_0NS_9allocatorIS3_EEFvRKNS_10shared_ptrIN14module_runtime11AsyncResultEEERKNS6_INS7_10AsyncErrorEEEEE18destroy_deallocateEv', symObjAddr: 0x27A4, symBinAddr: 0x67A4, symSize: 0x4 }
  - { offset: 0x6CC20, size: 0x8, addend: 0x0, symName: '__ZNSt3__110__function6__funcIZN10SmartStart3runEvE3$_0NS_9allocatorIS3_EEFvRKNS_10shared_ptrIN14module_runtime11AsyncResultEEERKNS6_INS7_10AsyncErrorEEEEE18destroy_deallocateEv', symObjAddr: 0x27A4, symBinAddr: 0x67A4, symSize: 0x4 }
  - { offset: 0x6CE23, size: 0x8, addend: 0x0, symName: '__ZNSt3__110__function6__funcIZN10SmartStart3runEvE3$_0NS_9allocatorIS3_EEFvRKNS_10shared_ptrIN14module_runtime11AsyncResultEEERKNS6_INS7_10AsyncErrorEEEEEclESB_SF_', symObjAddr: 0x27A8, symBinAddr: 0x67A8, symSize: 0x184 }
  - { offset: 0x6D9C8, size: 0x8, addend: 0x0, symName: __ZNSt3__113__assoc_stateIiE9set_valueIiEEvOT_, symObjAddr: 0x2B2C, symBinAddr: 0x698C, symSize: 0x9C }
  - { offset: 0x6DB89, size: 0x8, addend: 0x0, symName: '__ZNKSt3__110__function6__funcIZN10SmartStart3runEvE3$_0NS_9allocatorIS3_EEFvRKNS_10shared_ptrIN14module_runtime11AsyncResultEEERKNS6_INS7_10AsyncErrorEEEEE6targetERKSt9type_info', symObjAddr: 0x292C, symBinAddr: 0x692C, symSize: 0x54 }
  - { offset: 0x6DC2B, size: 0x8, addend: 0x0, symName: '__ZNKSt3__110__function6__funcIZN10SmartStart3runEvE3$_0NS_9allocatorIS3_EEFvRKNS_10shared_ptrIN14module_runtime11AsyncResultEEERKNS6_INS7_10AsyncErrorEEEEE11target_typeEv', symObjAddr: 0x2980, symBinAddr: 0x6980, symSize: 0xC }
  - { offset: 0x6DEC4, size: 0x8, addend: 0x0, symName: __ZNKSt3__16vectorINS_12basic_stringIcNS_11char_traitsIcEENS_9allocatorIcEEEENS4_IS6_EEE20__throw_length_errorB8ne180100Ev, symObjAddr: 0x2D6C, symBinAddr: 0x6BCC, symSize: 0x14 }
  - { offset: 0x6DEEE, size: 0x8, addend: 0x0, symName: __ZNSt3__124__put_character_sequenceB8ne180100IcNS_11char_traitsIcEEEERNS_13basic_ostreamIT_T0_EES7_PKS4_m, symObjAddr: 0x2D80, symBinAddr: 0x6BE0, symSize: 0x164 }
  - { offset: 0x6DEF9, size: 0x8, addend: 0x0, symName: __ZNSt3__128__exception_guard_exceptionsINS_6vectorINS_12basic_stringIcNS_11char_traitsIcEENS_9allocatorIcEEEENS5_IS7_EEE16__destroy_vectorEED1B8ne180100Ev, symObjAddr: 0x2CEC, symBinAddr: 0x6B4C, symSize: 0x80 }
  - { offset: 0x6E7B6, size: 0x8, addend: 0x0, symName: __ZNSt3__117bad_function_callD1Ev, symObjAddr: 0x3238, symBinAddr: 0x7098, symSize: 0x4 }
  - { offset: 0x6E7DA, size: 0x8, addend: 0x0, symName: __ZNSt3__117bad_function_callD1Ev, symObjAddr: 0x3238, symBinAddr: 0x7098, symSize: 0x4 }
  - { offset: 0x6E80F, size: 0x8, addend: 0x0, symName: __ZNSt3__117bad_function_callD0Ev, symObjAddr: 0x323C, symBinAddr: 0x709C, symSize: 0x14 }
  - { offset: 0x6EE8F, size: 0x8, addend: 0x0, symName: __ZZN3fmt3v106detail19parse_format_stringILb0EcZNS1_10vformat_toIcEEvRNS1_6bufferIT_EENS0_17basic_string_viewIS5_EENS1_12vformat_argsIS5_E4typeENS1_10locale_refEE14format_handlerEEvNS8_IT0_EEOT1_EN6writerclEPKcSL_, symObjAddr: 0xD020, symBinAddr: 0x10ACC, symSize: 0xDC }
  - { offset: 0x6F191, size: 0x8, addend: 0x0, symName: __ZZN3fmt3v106detail10vformat_toIcEEvRNS1_6bufferIT_EENS0_17basic_string_viewIS4_EENS1_12vformat_argsIS4_E4typeENS1_10locale_refEEN14format_handler15on_format_specsEiPKcSF_, symObjAddr: 0xD0FC, symBinAddr: 0x10BA8, symSize: 0xCCC }
  - { offset: 0x6F1B8, size: 0x8, addend: 0x0, symName: __ZN3fmt3v106detail21default_arg_formatterIcEclIbEENS0_8appenderET_, symObjAddr: 0x377C, symBinAddr: 0x75DC, symSize: 0x48 }
  - { offset: 0x6F274, size: 0x8, addend: 0x0, symName: __ZN3fmt3v106detail21default_arg_formatterIcEclIPKcEENS0_8appenderET_, symObjAddr: 0x37C4, symBinAddr: 0x7624, symSize: 0x44 }
  - { offset: 0x6F395, size: 0x8, addend: 0x0, symName: __ZN3fmt3v106detail21default_arg_formatterIcEclIPKvEENS0_8appenderET_, symObjAddr: 0x3808, symBinAddr: 0x7668, symSize: 0x44 }
  - { offset: 0x6F3A0, size: 0x8, addend: 0x0, symName: __ZN3fmt3v106detail21default_arg_formatterIcEclIPKvEENS0_8appenderET_, symObjAddr: 0x3808, symBinAddr: 0x7668, symSize: 0x44 }
  - { offset: 0x6F4E2, size: 0x8, addend: 0x0, symName: __ZN3fmt3v1019basic_memory_bufferIcLm500ENSt3__19allocatorIcEEE4growEm, symObjAddr: 0x35B8, symBinAddr: 0x7418, symSize: 0x138 }
  - { offset: 0x6F796, size: 0x8, addend: 0x0, symName: __ZN3fmt3v1012format_errorCI1St13runtime_errorEPKc, symObjAddr: 0x3740, symBinAddr: 0x75A0, symSize: 0x24 }
  - { offset: 0x6F82F, size: 0x8, addend: 0x0, symName: __ZN3fmt3v1012format_errorD1Ev, symObjAddr: 0x3764, symBinAddr: 0x75C4, symSize: 0x4 }
  - { offset: 0x6F853, size: 0x8, addend: 0x0, symName: __ZN3fmt3v1012format_errorD1Ev, symObjAddr: 0x3764, symBinAddr: 0x75C4, symSize: 0x4 }
  - { offset: 0x6F88C, size: 0x8, addend: 0x0, symName: __ZN3fmt3v1012format_errorD0Ev, symObjAddr: 0x3768, symBinAddr: 0x75C8, symSize: 0x14 }
  - { offset: 0x6FDE2, size: 0x8, addend: 0x0, symName: __ZN3fmt3v1012format_facetINSt3__16localeEEC2ERS3_, symObjAddr: 0x55C8, symBinAddr: 0x9428, symSize: 0x154 }
  - { offset: 0x70670, size: 0x8, addend: 0x0, symName: __ZN3fmt3v1012format_facetINSt3__16localeEED1Ev, symObjAddr: 0x5554, symBinAddr: 0x93B4, symSize: 0x74 }
  - { offset: 0x70C1B, size: 0x8, addend: 0x0, symName: __ZZN3fmt3v106detail9write_intINS0_8appenderEcZNS1_9write_intIcS3_jEET0_S5_NS1_13write_int_argIT1_EERKNS0_12format_specsIT_EENS1_10locale_refEEUlS3_E1_EESA_SA_ijRKNS9_IS5_EES7_ENKUlS3_E_clES3_, symObjAddr: 0x8714, symBinAddr: 0xC410, symSize: 0x1B8 }
  - { offset: 0x70F46, size: 0x8, addend: 0x0, symName: __ZZN3fmt3v106detail9write_intINS0_8appenderEcZNS1_9write_intIcS3_jEET0_S5_NS1_13write_int_argIT1_EERKNS0_12format_specsIT_EENS1_10locale_refEEUlS3_E0_EESA_SA_ijRKNS9_IS5_EES7_ENKUlS3_E_clES3_, symObjAddr: 0x852C, symBinAddr: 0xC228, symSize: 0x1E8 }
  - { offset: 0x71265, size: 0x8, addend: 0x0, symName: __ZZN3fmt3v106detail9write_intINS0_8appenderEcZNS1_9write_intIcS3_jEET0_S5_NS1_13write_int_argIT1_EERKNS0_12format_specsIT_EENS1_10locale_refEEUlS3_E_EESA_SA_ijRKNS9_IS5_EES7_ENKUlS3_E_clES3_, symObjAddr: 0x8358, symBinAddr: 0xC054, symSize: 0x1D4 }
  - { offset: 0x71506, size: 0x8, addend: 0x0, symName: __ZZN3fmt3v106detail9write_intINS0_8appenderEcZNS1_9write_intIcS3_jEET0_S5_NS1_13write_int_argIT1_EERKNS0_12format_specsIT_EENS1_10locale_refEEUlS3_E2_EESA_SA_ijRKNS9_IS5_EES7_ENKUlS3_E_clES3_, symObjAddr: 0x88CC, symBinAddr: 0xC5C8, symSize: 0x1B4 }
  - { offset: 0x71952, size: 0x8, addend: 0x0, symName: __ZN3fmt3v1012format_facetINSt3__16localeEED0Ev, symObjAddr: 0x571C, symBinAddr: 0x957C, symSize: 0x78 }
  - { offset: 0x71D71, size: 0x8, addend: 0x0, symName: __ZNK3fmt3v1012format_facetINSt3__16localeEE6do_putENS0_8appenderENS0_9loc_valueERKNS0_12format_specsIcEE, symObjAddr: 0x5794, symBinAddr: 0x95F4, symSize: 0x15C }
  - { offset: 0x72534, size: 0x8, addend: 0x0, symName: __ZN3fmt3v109loc_value5visitINS0_6detail10loc_writerIcEEEEDTclfp_Li0EEEOT_, symObjAddr: 0x58F0, symBinAddr: 0x9750, symSize: 0x90 }
  - { offset: 0x725EC, size: 0x8, addend: 0x0, symName: __ZN3fmt3v106detail10loc_writerIcED1Ev, symObjAddr: 0x5980, symBinAddr: 0x97E0, symSize: 0x64 }
  - { offset: 0x729A7, size: 0x8, addend: 0x0, symName: __ZN3fmt3v106detail10loc_writerIcEclIiLi0EEEbT_, symObjAddr: 0x59E4, symBinAddr: 0x9844, symSize: 0x1C0 }
  - { offset: 0x73381, size: 0x8, addend: 0x0, symName: __ZN3fmt3v106detail10loc_writerIcEclIjLi0EEEbT_, symObjAddr: 0x5BA4, symBinAddr: 0x9A04, symSize: 0x1A8 }
  - { offset: 0x73D5F, size: 0x8, addend: 0x0, symName: __ZN3fmt3v106detail10loc_writerIcEclIxLi0EEEbT_, symObjAddr: 0x5D4C, symBinAddr: 0x9BAC, symSize: 0x1C0 }
  - { offset: 0x74759, size: 0x8, addend: 0x0, symName: __ZN3fmt3v106detail10loc_writerIcEclIyLi0EEEbT_, symObjAddr: 0x5F0C, symBinAddr: 0x9D6C, symSize: 0x1A8 }
  - { offset: 0x75147, size: 0x8, addend: 0x0, symName: __ZN3fmt3v106detail10loc_writerIcEclInLi0EEEbT_, symObjAddr: 0x60B4, symBinAddr: 0x9F14, symSize: 0x1CC }
  - { offset: 0x75B4A, size: 0x8, addend: 0x0, symName: __ZN3fmt3v106detail10loc_writerIcEclIoLi0EEEbT_, symObjAddr: 0x6280, symBinAddr: 0xA0E0, symSize: 0x1B0 }
  - { offset: 0x769CC, size: 0x8, addend: 0x0, symName: __ZNK3fmt3v106detail14digit_groupingIcE5applyINS0_8appenderEcEET_S6_NS0_17basic_string_viewIT0_EE, symObjAddr: 0x7758, symBinAddr: 0xB56C, symSize: 0x38C }
  - { offset: 0x77513, size: 0x8, addend: 0x0, symName: __ZN3fmt3v1019basic_memory_bufferIiLm500ENSt3__19allocatorIiEEE4growEm, symObjAddr: 0x7AE4, symBinAddr: 0xB8F8, symSize: 0x110 }
  - { offset: 0x77796, size: 0x8, addend: 0x0, symName: __ZN3fmt3v106detail9write_intINS0_8appenderEocEET_S4_T0_jRKNS0_12format_specsIT1_EERKNS1_14digit_groupingIS7_EE, symObjAddr: 0x7BF4, symBinAddr: 0xBA08, symSize: 0x64C }
  - { offset: 0x77B9D, size: 0x8, addend: 0x0, symName: __ZN3fmt3v106detail14digit_groupingIcEC2ENS1_10locale_refEb, symObjAddr: 0x9F1C, symBinAddr: 0xDC18, symSize: 0xE8 }
  - { offset: 0x78171, size: 0x8, addend: 0x0, symName: __ZZN3fmt3v106detail14do_write_floatINS0_8appenderENS1_9dragonbox10decimal_fpIfEEcNS1_14digit_groupingIcEEEET_S9_RKT0_RKNS0_12format_specsIT1_EENS1_11float_specsENS1_10locale_refEENKUlS3_E_clES3_, symObjAddr: 0x99D0, symBinAddr: 0xD6CC, symSize: 0x160 }
  - { offset: 0x783D6, size: 0x8, addend: 0x0, symName: __ZZN3fmt3v106detail14do_write_floatINS0_8appenderENS1_9dragonbox10decimal_fpIfEEcNS1_14digit_groupingIcEEEET_S9_RKT0_RKNS0_12format_specsIT1_EENS1_11float_specsENS1_10locale_refEENKUlS3_E0_clES3_, symObjAddr: 0xA144, symBinAddr: 0xDE40, symSize: 0x13C }
  - { offset: 0x785D1, size: 0x8, addend: 0x0, symName: __ZZN3fmt3v106detail14do_write_floatINS0_8appenderENS1_9dragonbox10decimal_fpIfEEcNS1_14digit_groupingIcEEEET_S9_RKT0_RKNS0_12format_specsIT1_EENS1_11float_specsENS1_10locale_refEENKUlS3_E2_clES3_, symObjAddr: 0xA8D4, symBinAddr: 0xE5D0, symSize: 0x270 }
  - { offset: 0x789BA, size: 0x8, addend: 0x0, symName: __ZN3fmt3v106detail5writeIcNS0_8appenderEdLi0EEET0_S4_T1_, symObjAddr: 0xAB44, symBinAddr: 0xE840, symSize: 0xCC }
  - { offset: 0x78C36, size: 0x8, addend: 0x0, symName: __ZZN3fmt3v106detail14do_write_floatINS0_8appenderENS1_9dragonbox10decimal_fpIdEEcNS1_14digit_groupingIcEEEET_S9_RKT0_RKNS0_12format_specsIT1_EENS1_11float_specsENS1_10locale_refEENKUlS3_E_clES3_, symObjAddr: 0xB8D4, symBinAddr: 0xF5D0, symSize: 0x164 }
  - { offset: 0x78E9B, size: 0x8, addend: 0x0, symName: __ZZN3fmt3v106detail14do_write_floatINS0_8appenderENS1_9dragonbox10decimal_fpIdEEcNS1_14digit_groupingIcEEEET_S9_RKT0_RKNS0_12format_specsIT1_EENS1_11float_specsENS1_10locale_refEENKUlS3_E0_clES3_, symObjAddr: 0xBC78, symBinAddr: 0xF974, symSize: 0x13C }
  - { offset: 0x79096, size: 0x8, addend: 0x0, symName: __ZZN3fmt3v106detail14do_write_floatINS0_8appenderENS1_9dragonbox10decimal_fpIdEEcNS1_14digit_groupingIcEEEET_S9_RKT0_RKNS0_12format_specsIT1_EENS1_11float_specsENS1_10locale_refEENKUlS3_E2_clES3_, symObjAddr: 0xC440, symBinAddr: 0x1013C, symSize: 0x28C }
  - { offset: 0x7952B, size: 0x8, addend: 0x0, symName: __ZZN3fmt3v106detail9write_ptrIcNS0_8appenderEmEET0_S4_T1_PKNS0_12format_specsIT_EEENKUlS3_E_clES3_, symObjAddr: 0xCA00, symBinAddr: 0x104AC, symSize: 0x188 }
  - { offset: 0x7999F, size: 0x8, addend: 0x0, symName: __ZZN3fmt3v106detail10vformat_toIcEEvRNS1_6bufferIT_EENS0_17basic_string_viewIS4_EENS1_12vformat_argsIS4_E4typeENS1_10locale_refEEN14format_handler15on_format_specsEiPKcSF_, symObjAddr: 0xD0FC, symBinAddr: 0x10BA8, symSize: 0xCCC }
  - { offset: 0x7C086, size: 0x8, addend: 0x0, symName: __ZNK3fmt3v1017basic_format_argsINS0_20basic_format_contextINS0_8appenderEcEEE3getIcEENS0_16basic_format_argIS4_EENS0_17basic_string_viewIT_EE, symObjAddr: 0xE5F8, symBinAddr: 0x120A4, symSize: 0x118 }
  - { offset: 0x7C62B, size: 0x8, addend: 0x0, symName: __ZZN3fmt3v106detail9write_intINS0_8appenderEcZNS1_9write_intIcS3_yEET0_S5_NS1_13write_int_argIT1_EERKNS0_12format_specsIT_EENS1_10locale_refEEUlS3_E1_EESA_SA_ijRKNS9_IS5_EES7_ENKUlS3_E_clES3_, symObjAddr: 0xF498, symBinAddr: 0x12F44, symSize: 0x1BC }
  - { offset: 0x7C956, size: 0x8, addend: 0x0, symName: __ZZN3fmt3v106detail9write_intINS0_8appenderEcZNS1_9write_intIcS3_yEET0_S5_NS1_13write_int_argIT1_EERKNS0_12format_specsIT_EENS1_10locale_refEEUlS3_E0_EESA_SA_ijRKNS9_IS5_EES7_ENKUlS3_E_clES3_, symObjAddr: 0xF2B0, symBinAddr: 0x12D5C, symSize: 0x1E8 }
  - { offset: 0x7CC75, size: 0x8, addend: 0x0, symName: __ZZN3fmt3v106detail9write_intINS0_8appenderEcZNS1_9write_intIcS3_yEET0_S5_NS1_13write_int_argIT1_EERKNS0_12format_specsIT_EENS1_10locale_refEEUlS3_E_EESA_SA_ijRKNS9_IS5_EES7_ENKUlS3_E_clES3_, symObjAddr: 0xF0C0, symBinAddr: 0x12B6C, symSize: 0x1F0 }
  - { offset: 0x7CF0C, size: 0x8, addend: 0x0, symName: __ZZN3fmt3v106detail9write_intINS0_8appenderEcZNS1_9write_intIcS3_yEET0_S5_NS1_13write_int_argIT1_EERKNS0_12format_specsIT_EENS1_10locale_refEEUlS3_E2_EESA_SA_ijRKNS9_IS5_EES7_ENKUlS3_E_clES3_, symObjAddr: 0xF654, symBinAddr: 0x13100, symSize: 0x1B4 }
  - { offset: 0x7D34B, size: 0x8, addend: 0x0, symName: __ZZN3fmt3v106detail9write_intINS0_8appenderEcZNS1_9write_intIcS3_oEET0_S5_NS1_13write_int_argIT1_EERKNS0_12format_specsIT_EENS1_10locale_refEEUlS3_E1_EESA_SA_ijRKNS9_IS5_EES7_ENKUlS3_E_clES3_, symObjAddr: 0x10778, symBinAddr: 0x14224, symSize: 0x1D4 }
  - { offset: 0x7D66E, size: 0x8, addend: 0x0, symName: __ZZN3fmt3v106detail9write_intINS0_8appenderEcZNS1_9write_intIcS3_oEET0_S5_NS1_13write_int_argIT1_EERKNS0_12format_specsIT_EENS1_10locale_refEEUlS3_E0_EESA_SA_ijRKNS9_IS5_EES7_ENKUlS3_E_clES3_, symObjAddr: 0x1057C, symBinAddr: 0x14028, symSize: 0x1FC }
  - { offset: 0x7D98D, size: 0x8, addend: 0x0, symName: __ZZN3fmt3v106detail9write_intINS0_8appenderEcZNS1_9write_intIcS3_oEET0_S5_NS1_13write_int_argIT1_EERKNS0_12format_specsIT_EENS1_10locale_refEEUlS3_E_EESA_SA_ijRKNS9_IS5_EES7_ENKUlS3_E_clES3_, symObjAddr: 0x102E8, symBinAddr: 0x13D94, symSize: 0x294 }
  - { offset: 0x7DC15, size: 0x8, addend: 0x0, symName: __ZZN3fmt3v106detail9write_intINS0_8appenderEcZNS1_9write_intIcS3_oEET0_S5_NS1_13write_int_argIT1_EERKNS0_12format_specsIT_EENS1_10locale_refEEUlS3_E2_EESA_SA_ijRKNS9_IS5_EES7_ENKUlS3_E_clES3_, symObjAddr: 0x1094C, symBinAddr: 0x143F8, symSize: 0x1C8 }
  - { offset: 0x7E8F2, size: 0x8, addend: 0x0, symName: __ZN3fmt3v106detail6bigintlSEi, symObjAddr: 0x12EF0, symBinAddr: 0x1699C, symSize: 0x138 }
  - { offset: 0x7EA00, size: 0x8, addend: 0x0, symName: __ZN3fmt3v106detail6bigint12assign_pow10Ei, symObjAddr: 0x13028, symBinAddr: 0x16AD4, symSize: 0x18C }
  - { offset: 0x7EA14, size: 0x8, addend: 0x0, symName: __ZN3fmt3v106detail6bigint12assign_pow10Ei, symObjAddr: 0x13028, symBinAddr: 0x16AD4, symSize: 0x18C }
  - { offset: 0x7ED51, size: 0x8, addend: 0x0, symName: __ZN3fmt3v106detail11add_compareERKNS1_6bigintES4_S4_, symObjAddr: 0x131B4, symBinAddr: 0x16C60, symSize: 0x15C }
  - { offset: 0x7ED65, size: 0x8, addend: 0x0, symName: __ZN3fmt3v106detail6bigint13divmod_assignERKS2_, symObjAddr: 0x13310, symBinAddr: 0x16DBC, symSize: 0x2F8 }
  - { offset: 0x7F269, size: 0x8, addend: 0x0, symName: __ZN3fmt3v106detail6bigint6squareEv, symObjAddr: 0x13718, symBinAddr: 0x170B4, symSize: 0x590 }
  - { offset: 0x7FD07, size: 0x8, addend: 0x0, symName: __ZN3fmt3v106detail6bigint16subtract_alignedERKS2_, symObjAddr: 0x13CA8, symBinAddr: 0x17644, symSize: 0x1D0 }
  - { offset: 0x80147, size: 0x8, addend: 0x0, symName: __ZN3fmt3v106detail14do_write_floatINS0_8appenderENS1_14big_decimal_fpEcNS1_14digit_groupingIcEEEET_S7_RKT0_RKNS0_12format_specsIT1_EENS1_11float_specsENS1_10locale_refE, symObjAddr: 0x13E78, symBinAddr: 0x17814, symSize: 0x658 }
  - { offset: 0x80351, size: 0x8, addend: 0x0, symName: __ZZN3fmt3v106detail14do_write_floatINS0_8appenderENS1_14big_decimal_fpEcNS1_14digit_groupingIcEEEET_S7_RKT0_RKNS0_12format_specsIT1_EENS1_11float_specsENS1_10locale_refEENKUlS3_E_clES3_, symObjAddr: 0x144D0, symBinAddr: 0x17E6C, symSize: 0x178 }
  - { offset: 0x805F7, size: 0x8, addend: 0x0, symName: __ZZN3fmt3v106detail14do_write_floatINS0_8appenderENS1_14big_decimal_fpEcNS1_14digit_groupingIcEEEET_S7_RKT0_RKNS0_12format_specsIT1_EENS1_11float_specsENS1_10locale_refEENKUlS3_E0_clES3_, symObjAddr: 0x14648, symBinAddr: 0x17FE4, symSize: 0x13C }
  - { offset: 0x807F2, size: 0x8, addend: 0x0, symName: __ZZN3fmt3v106detail14do_write_floatINS0_8appenderENS1_14big_decimal_fpEcNS1_14digit_groupingIcEEEET_S7_RKT0_RKNS0_12format_specsIT1_EENS1_11float_specsENS1_10locale_refEENKUlS3_E2_clES3_, symObjAddr: 0x14F98, symBinAddr: 0x18934, symSize: 0x2BC }
  - { offset: 0x80BC8, size: 0x8, addend: 0x0, symName: __ZN3fmt3v106detail11write_floatIcNS0_8appenderEdEET0_S4_T1_NS0_12format_specsIT_EENS1_10locale_refE, symObjAddr: 0x15254, symBinAddr: 0x18BF0, symSize: 0x344 }
  - { offset: 0x80C35, size: 0x8, addend: 0x0, symName: __ZZN3fmt3v106detail18for_each_codepointIZNS1_16code_point_indexENS0_17basic_string_viewIcEEmEUljS4_E_EEvS4_T_ENKUlPKcS8_E_clES8_S8_, symObjAddr: 0x15E7C, symBinAddr: 0x194D4, symSize: 0x148 }
  - { offset: 0x80D36, size: 0x8, addend: 0x0, symName: __ZN3fmt3v106detail16write_escaped_cpINS1_17counting_iteratorEcEET_S4_RKNS1_18find_escape_resultIT0_EE, symObjAddr: 0x15FC4, symBinAddr: 0x1961C, symSize: 0x1C4 }
  - { offset: 0x80D56, size: 0x8, addend: 0x0, symName: __ZZN3fmt3v106detail18for_each_codepointIZNS1_13compute_widthENS0_17basic_string_viewIcEEE17count_code_pointsEEvS4_T_ENKUlPKcS8_E_clES8_S8_, symObjAddr: 0x16318, symBinAddr: 0x19970, symSize: 0x1E8 }
  - { offset: 0x80E5B, size: 0x8, addend: 0x0, symName: __ZN3fmt3v106detail20write_escaped_stringIcNS0_8appenderEEET0_S4_NS0_17basic_string_viewIT_EE, symObjAddr: 0x16500, symBinAddr: 0x19B58, symSize: 0x2E0 }
  - { offset: 0x80EE1, size: 0x8, addend: 0x0, symName: __ZZN3fmt3v106detail18for_each_codepointIZNS1_11find_escapeEPKcS4_EUljNS0_17basic_string_viewIcEEE_EEvS6_T_ENKUlS4_S4_E_clES4_S4_, symObjAddr: 0x16188, symBinAddr: 0x197E0, symSize: 0x190 }
  - { offset: 0x81025, size: 0x8, addend: 0x0, symName: __ZZN3fmt3v106detail18for_each_codepointIZNS1_13compute_widthENS0_17basic_string_viewIcEEE17count_code_pointsEEvS4_T_ENKUlPKcS8_E_clES8_S8_, symObjAddr: 0x16318, symBinAddr: 0x19970, symSize: 0x1E8 }
  - { offset: 0x83FA8, size: 0x8, addend: 0x0, symName: __ZN11EdgeService5startEiRKNSt3__112basic_stringIcNS0_11char_traitsIcEENS0_9allocatorIcEEEES8_S8_S8_RKNS0_3mapIS6_S6_NS0_4lessIS6_EENS4_INS0_4pairIS7_S6_EEEEEE, symObjAddr: 0x0, symBinAddr: 0x19E84, symSize: 0x5C8 }
  - { offset: 0x8CDD7, size: 0x8, addend: 0x0, symName: __ZL17XLoggerInitializev, symObjAddr: 0x5C8, symBinAddr: 0x1A44C, symSize: 0xD0 }
  - { offset: 0x8E5A1, size: 0x8, addend: 0x0, symName: __ZN11EdgeService5startEiRKNSt3__112basic_stringIcNS0_11char_traitsIcEENS0_9allocatorIcEEEES8_S8_S8_RKNS0_3mapIS6_S6_NS0_4lessIS6_EENS4_INS0_4pairIS7_S6_EEEEEE, symObjAddr: 0x0, symBinAddr: 0x19E84, symSize: 0x5C8 }
  - { offset: 0x90D64, size: 0x8, addend: 0x0, symName: __ZNSt3__16vectorINS_12basic_stringIcNS_11char_traitsIcEENS_9allocatorIcEEEENS4_IS6_EEE21__push_back_slow_pathIS6_EEPS6_OT_, symObjAddr: 0x9AC, symBinAddr: 0x1A798, symSize: 0x168 }
  - { offset: 0x9138E, size: 0x8, addend: 0x0, symName: __ZNSt3__114__split_bufferINS_12basic_stringIcNS_11char_traitsIcEENS_9allocatorIcEEEERNS4_IS6_EEED1Ev, symObjAddr: 0xB14, symBinAddr: 0x1A900, symSize: 0x64 }
  - { offset: 0x913A2, size: 0x8, addend: 0x0, symName: __ZNSt3__16vectorINS_12basic_stringIcNS_11char_traitsIcEENS_9allocatorIcEEEENS4_IS6_EEE21__push_back_slow_pathIRKS6_EEPS6_OT_, symObjAddr: 0xC14, symBinAddr: 0x1A964, symSize: 0x1C8 }
  - { offset: 0x91D40, size: 0x8, addend: 0x0, symName: __ZNSt3__110__function6__funcIPFvvENS_9allocatorIS3_EES2_ED1Ev, symObjAddr: 0xE68, symBinAddr: 0x1AB2C, symSize: 0x4 }
  - { offset: 0x9216E, size: 0x8, addend: 0x0, symName: __ZN11EdgeService4stopEv, symObjAddr: 0x708, symBinAddr: 0x1A51C, symSize: 0x4 }
  - { offset: 0x92184, size: 0x8, addend: 0x0, symName: __ZN11EdgeService9getStatusEv, symObjAddr: 0x70C, symBinAddr: 0x1A520, symSize: 0x4 }
  - { offset: 0x9219A, size: 0x8, addend: 0x0, symName: '__ZNSt3__110__function6__funcIZL17XLoggerInitializevE3$_0NS_9allocatorIS2_EEFvN8x_logger10level_enumERKNS_6chrono10time_pointINS7_12system_clockENS7_8durationIxNS_5ratioILl1ELl1000000EEEEEEERKNS_12basic_stringIcNS_11char_traitsIcEENS3_IcEEEEEED1Ev', symObjAddr: 0x710, symBinAddr: 0x1A524, symSize: 0x4 }
  - { offset: 0x921C5, size: 0x8, addend: 0x0, symName: '__ZNSt3__110__function6__funcIZL17XLoggerInitializevE3$_0NS_9allocatorIS2_EEFvN8x_logger10level_enumERKNS_6chrono10time_pointINS7_12system_clockENS7_8durationIxNS_5ratioILl1ELl1000000EEEEEEERKNS_12basic_stringIcNS_11char_traitsIcEENS3_IcEEEEEED0Ev', symObjAddr: 0x714, symBinAddr: 0x1A528, symSize: 0x4 }
  - { offset: 0x92280, size: 0x8, addend: 0x0, symName: '__ZNKSt3__110__function6__funcIZL17XLoggerInitializevE3$_0NS_9allocatorIS2_EEFvN8x_logger10level_enumERKNS_6chrono10time_pointINS7_12system_clockENS7_8durationIxNS_5ratioILl1ELl1000000EEEEEEERKNS_12basic_stringIcNS_11char_traitsIcEENS3_IcEEEEEE7__cloneEv', symObjAddr: 0x718, symBinAddr: 0x1A52C, symSize: 0x24 }
  - { offset: 0x923D5, size: 0x8, addend: 0x0, symName: '__ZNKSt3__110__function6__funcIZL17XLoggerInitializevE3$_0NS_9allocatorIS2_EEFvN8x_logger10level_enumERKNS_6chrono10time_pointINS7_12system_clockENS7_8durationIxNS_5ratioILl1ELl1000000EEEEEEERKNS_12basic_stringIcNS_11char_traitsIcEENS3_IcEEEEEE7__cloneEPNS0_6__baseISO_EE', symObjAddr: 0x73C, symBinAddr: 0x1A550, symSize: 0x10 }
  - { offset: 0x9240C, size: 0x8, addend: 0x0, symName: '__ZNKSt3__110__function6__funcIZL17XLoggerInitializevE3$_0NS_9allocatorIS2_EEFvN8x_logger10level_enumERKNS_6chrono10time_pointINS7_12system_clockENS7_8durationIxNS_5ratioILl1ELl1000000EEEEEEERKNS_12basic_stringIcNS_11char_traitsIcEENS3_IcEEEEEE7__cloneEPNS0_6__baseISO_EE', symObjAddr: 0x73C, symBinAddr: 0x1A550, symSize: 0x10 }
  - { offset: 0x9242A, size: 0x8, addend: 0x0, symName: '__ZNKSt3__110__function6__funcIZL17XLoggerInitializevE3$_0NS_9allocatorIS2_EEFvN8x_logger10level_enumERKNS_6chrono10time_pointINS7_12system_clockENS7_8durationIxNS_5ratioILl1ELl1000000EEEEEEERKNS_12basic_stringIcNS_11char_traitsIcEENS3_IcEEEEEE7__cloneEPNS0_6__baseISO_EE', symObjAddr: 0x73C, symBinAddr: 0x1A550, symSize: 0x10 }
  - { offset: 0x92447, size: 0x8, addend: 0x0, symName: '__ZNSt3__110__function6__funcIZL17XLoggerInitializevE3$_0NS_9allocatorIS2_EEFvN8x_logger10level_enumERKNS_6chrono10time_pointINS7_12system_clockENS7_8durationIxNS_5ratioILl1ELl1000000EEEEEEERKNS_12basic_stringIcNS_11char_traitsIcEENS3_IcEEEEEE7destroyEv', symObjAddr: 0x74C, symBinAddr: 0x1A560, symSize: 0x4 }
  - { offset: 0x9249A, size: 0x8, addend: 0x0, symName: '__ZNSt3__110__function6__funcIZL17XLoggerInitializevE3$_0NS_9allocatorIS2_EEFvN8x_logger10level_enumERKNS_6chrono10time_pointINS7_12system_clockENS7_8durationIxNS_5ratioILl1ELl1000000EEEEEEERKNS_12basic_stringIcNS_11char_traitsIcEENS3_IcEEEEEE18destroy_deallocateEv', symObjAddr: 0x750, symBinAddr: 0x1A564, symSize: 0x4 }
  - { offset: 0x924D1, size: 0x8, addend: 0x0, symName: '__ZNSt3__110__function6__funcIZL17XLoggerInitializevE3$_0NS_9allocatorIS2_EEFvN8x_logger10level_enumERKNS_6chrono10time_pointINS7_12system_clockENS7_8durationIxNS_5ratioILl1ELl1000000EEEEEEERKNS_12basic_stringIcNS_11char_traitsIcEENS3_IcEEEEEE18destroy_deallocateEv', symObjAddr: 0x750, symBinAddr: 0x1A564, symSize: 0x4 }
  - { offset: 0x924F6, size: 0x8, addend: 0x0, symName: '__ZNSt3__110__function6__funcIZL17XLoggerInitializevE3$_0NS_9allocatorIS2_EEFvN8x_logger10level_enumERKNS_6chrono10time_pointINS7_12system_clockENS7_8durationIxNS_5ratioILl1ELl1000000EEEEEEERKNS_12basic_stringIcNS_11char_traitsIcEENS3_IcEEEEEE18destroy_deallocateEv', symObjAddr: 0x750, symBinAddr: 0x1A564, symSize: 0x4 }
  - { offset: 0x92525, size: 0x8, addend: 0x0, symName: '__ZNSt3__110__function6__funcIZL17XLoggerInitializevE3$_0NS_9allocatorIS2_EEFvN8x_logger10level_enumERKNS_6chrono10time_pointINS7_12system_clockENS7_8durationIxNS_5ratioILl1ELl1000000EEEEEEERKNS_12basic_stringIcNS_11char_traitsIcEENS3_IcEEEEEE18destroy_deallocateEv', symObjAddr: 0x750, symBinAddr: 0x1A564, symSize: 0x4 }
  - { offset: 0x9254E, size: 0x8, addend: 0x0, symName: '__ZNSt3__110__function6__funcIZL17XLoggerInitializevE3$_0NS_9allocatorIS2_EEFvN8x_logger10level_enumERKNS_6chrono10time_pointINS7_12system_clockENS7_8durationIxNS_5ratioILl1ELl1000000EEEEEEERKNS_12basic_stringIcNS_11char_traitsIcEENS3_IcEEEEEE18destroy_deallocateEv', symObjAddr: 0x750, symBinAddr: 0x1A564, symSize: 0x4 }
  - { offset: 0x9280D, size: 0x8, addend: 0x0, symName: '__ZNSt3__110__function6__funcIZL17XLoggerInitializevE3$_0NS_9allocatorIS2_EEFvN8x_logger10level_enumERKNS_6chrono10time_pointINS7_12system_clockENS7_8durationIxNS_5ratioILl1ELl1000000EEEEEEERKNS_12basic_stringIcNS_11char_traitsIcEENS3_IcEEEEEEclEOS6_SG_SN_', symObjAddr: 0x754, symBinAddr: 0x1A568, symSize: 0x1D0 }
  - { offset: 0x92CCA, size: 0x8, addend: 0x0, symName: '__ZNSt3__110__function6__funcIZL17XLoggerInitializevE3$_0NS_9allocatorIS2_EEFvN8x_logger10level_enumERKNS_6chrono10time_pointINS7_12system_clockENS7_8durationIxNS_5ratioILl1ELl1000000EEEEEEERKNS_12basic_stringIcNS_11char_traitsIcEENS3_IcEEEEEEclEOS6_SG_SN_.cold.1', symObjAddr: 0xF40, symBinAddr: 0x5B8FD0, symSize: 0x60 }
  - { offset: 0x92DF8, size: 0x8, addend: 0x0, symName: '__ZNSt3__110__function6__funcIZL17XLoggerInitializevE3$_0NS_9allocatorIS2_EEFvN8x_logger10level_enumERKNS_6chrono10time_pointINS7_12system_clockENS7_8durationIxNS_5ratioILl1ELl1000000EEEEEEERKNS_12basic_stringIcNS_11char_traitsIcEENS3_IcEEEEEEclEOS6_SG_SN_.cold.3', symObjAddr: 0x1000, symBinAddr: 0x5B9030, symSize: 0x60 }
  - { offset: 0x92FB1, size: 0x8, addend: 0x0, symName: '__ZNKSt3__110__function6__funcIZL17XLoggerInitializevE3$_0NS_9allocatorIS2_EEFvN8x_logger10level_enumERKNS_6chrono10time_pointINS7_12system_clockENS7_8durationIxNS_5ratioILl1ELl1000000EEEEEEERKNS_12basic_stringIcNS_11char_traitsIcEENS3_IcEEEEEE6targetERKSt9type_info', symObjAddr: 0x924, symBinAddr: 0x1A738, symSize: 0x54 }
  - { offset: 0x9306A, size: 0x8, addend: 0x0, symName: '__ZNKSt3__110__function6__funcIZL17XLoggerInitializevE3$_0NS_9allocatorIS2_EEFvN8x_logger10level_enumERKNS_6chrono10time_pointINS7_12system_clockENS7_8durationIxNS_5ratioILl1ELl1000000EEEEEEERKNS_12basic_stringIcNS_11char_traitsIcEENS3_IcEEEEEE11target_typeEv', symObjAddr: 0x978, symBinAddr: 0x1A78C, symSize: 0xC }
  - { offset: 0x93300, size: 0x8, addend: 0x0, symName: __ZNSt3__114__split_bufferINS_12basic_stringIcNS_11char_traitsIcEENS_9allocatorIcEEEERNS4_IS6_EEED1Ev, symObjAddr: 0xB14, symBinAddr: 0x1A900, symSize: 0x64 }
  - { offset: 0x935EA, size: 0x8, addend: 0x0, symName: __ZNSt3__16vectorINS_12basic_stringIcNS_11char_traitsIcEENS_9allocatorIcEEEENS4_IS6_EEE21__push_back_slow_pathIRKS6_EEPS6_OT_, symObjAddr: 0xC14, symBinAddr: 0x1A964, symSize: 0x1C8 }
  - { offset: 0x9375C, size: 0x8, addend: 0x0, symName: __ZNSt3__110__function6__funcIPFvvENS_9allocatorIS3_EES2_ED1Ev, symObjAddr: 0xE68, symBinAddr: 0x1AB2C, symSize: 0x4 }
  - { offset: 0x93787, size: 0x8, addend: 0x0, symName: __ZNSt3__110__function6__funcIPFvvENS_9allocatorIS3_EES2_ED0Ev, symObjAddr: 0xE6C, symBinAddr: 0x1AB30, symSize: 0x4 }
  - { offset: 0x9399B, size: 0x8, addend: 0x0, symName: __ZNKSt3__110__function6__funcIPFvvENS_9allocatorIS3_EES2_E7__cloneEv, symObjAddr: 0xE70, symBinAddr: 0x1AB34, symSize: 0x38 }
  - { offset: 0x93CB5, size: 0x8, addend: 0x0, symName: __ZNKSt3__110__function6__funcIPFvvENS_9allocatorIS3_EES2_E7__cloneEPNS0_6__baseIS2_EE, symObjAddr: 0xEA8, symBinAddr: 0x1AB6C, symSize: 0x18 }
  - { offset: 0x93CEE, size: 0x8, addend: 0x0, symName: __ZNKSt3__110__function6__funcIPFvvENS_9allocatorIS3_EES2_E7__cloneEPNS0_6__baseIS2_EE, symObjAddr: 0xEA8, symBinAddr: 0x1AB6C, symSize: 0x18 }
  - { offset: 0x93D20, size: 0x8, addend: 0x0, symName: __ZNKSt3__110__function6__funcIPFvvENS_9allocatorIS3_EES2_E7__cloneEPNS0_6__baseIS2_EE, symObjAddr: 0xEA8, symBinAddr: 0x1AB6C, symSize: 0x18 }
  - { offset: 0x93DBF, size: 0x8, addend: 0x0, symName: __ZNSt3__110__function6__funcIPFvvENS_9allocatorIS3_EES2_E7destroyEv, symObjAddr: 0xEC0, symBinAddr: 0x1AB84, symSize: 0x4 }
  - { offset: 0x93E14, size: 0x8, addend: 0x0, symName: __ZNSt3__110__function6__funcIPFvvENS_9allocatorIS3_EES2_E18destroy_deallocateEv, symObjAddr: 0xEC4, symBinAddr: 0x1AB88, symSize: 0x4 }
  - { offset: 0x93E4B, size: 0x8, addend: 0x0, symName: __ZNSt3__110__function6__funcIPFvvENS_9allocatorIS3_EES2_E18destroy_deallocateEv, symObjAddr: 0xEC4, symBinAddr: 0x1AB88, symSize: 0x4 }
  - { offset: 0x93E70, size: 0x8, addend: 0x0, symName: __ZNSt3__110__function6__funcIPFvvENS_9allocatorIS3_EES2_E18destroy_deallocateEv, symObjAddr: 0xEC4, symBinAddr: 0x1AB88, symSize: 0x4 }
  - { offset: 0x93E9F, size: 0x8, addend: 0x0, symName: __ZNSt3__110__function6__funcIPFvvENS_9allocatorIS3_EES2_E18destroy_deallocateEv, symObjAddr: 0xEC4, symBinAddr: 0x1AB88, symSize: 0x4 }
  - { offset: 0x93EC8, size: 0x8, addend: 0x0, symName: __ZNSt3__110__function6__funcIPFvvENS_9allocatorIS3_EES2_E18destroy_deallocateEv, symObjAddr: 0xEC4, symBinAddr: 0x1AB88, symSize: 0x4 }
  - { offset: 0x93F29, size: 0x8, addend: 0x0, symName: __ZNSt3__110__function6__funcIPFvvENS_9allocatorIS3_EES2_EclEv, symObjAddr: 0xEC8, symBinAddr: 0x1AB8C, symSize: 0x8 }
  - { offset: 0x93F55, size: 0x8, addend: 0x0, symName: __ZNSt3__110__function6__funcIPFvvENS_9allocatorIS3_EES2_EclEv, symObjAddr: 0xEC8, symBinAddr: 0x1AB8C, symSize: 0x8 }
  - { offset: 0x93F75, size: 0x8, addend: 0x0, symName: __ZNSt3__110__function6__funcIPFvvENS_9allocatorIS3_EES2_EclEv, symObjAddr: 0xEC8, symBinAddr: 0x1AB8C, symSize: 0x8 }
  - { offset: 0x93F94, size: 0x8, addend: 0x0, symName: __ZNSt3__110__function6__funcIPFvvENS_9allocatorIS3_EES2_EclEv, symObjAddr: 0xEC8, symBinAddr: 0x1AB8C, symSize: 0x8 }
  - { offset: 0x93FC0, size: 0x8, addend: 0x0, symName: __ZNKSt3__110__function6__funcIPFvvENS_9allocatorIS3_EES2_E6targetERKSt9type_info, symObjAddr: 0xED0, symBinAddr: 0x1AB94, symSize: 0x64 }
  - { offset: 0x94062, size: 0x8, addend: 0x0, symName: __ZNKSt3__110__function6__funcIPFvvENS_9allocatorIS3_EES2_E11target_typeEv, symObjAddr: 0xF34, symBinAddr: 0x1ABF8, symSize: 0xC }
  - { offset: 0x9408B, size: 0x8, addend: 0x0, symName: _OUTLINED_FUNCTION_0, symObjAddr: 0x1120, symBinAddr: 0x1AC04, symSize: 0x18 }
  - { offset: 0x940A3, size: 0x8, addend: 0x0, symName: _OUTLINED_FUNCTION_1, symObjAddr: 0x1138, symBinAddr: 0x1AC1C, symSize: 0x10 }
  - { offset: 0x940BB, size: 0x8, addend: 0x0, symName: _OUTLINED_FUNCTION_2, symObjAddr: 0x1148, symBinAddr: 0x1AC2C, symSize: 0x8 }
  - { offset: 0x940D3, size: 0x8, addend: 0x0, symName: _OUTLINED_FUNCTION_3, symObjAddr: 0x1150, symBinAddr: 0x1AC34, symSize: 0xC }
  - { offset: 0x940EB, size: 0x8, addend: 0x0, symName: _OUTLINED_FUNCTION_4, symObjAddr: 0x115C, symBinAddr: 0x1AC40, symSize: 0x10 }
...
